Certificate:
    Data:
        Version: 3 (0x2)
        Serial Number:
            d9:0b:c7:5d:d9:31:ec:a8:44:12:0f:6f:d2:e3:57:7a
    Signature Algorithm: sha256WithRSAEncryption
        Issuer: CN=Root CA, O=Development VM, C=NL
        Validity
            Not Before: Sep  1 10:16:37 2020 GMT
            Not After : Sep  1 10:16:37 2023 GMT
        Subject: C=NL, O=Development VM, CN=manage.stepup.example.com
        Subject Public Key Info:
            Public Key Algorithm: rsaEncryption
                Public-Key: (2048 bit)
                Modulus:
                    00:bf:73:71:5c:f6:bd:0b:a0:fc:69:7b:fc:ef:0b:
                    df:36:17:34:ed:fd:f4:bd:1a:5d:8f:e0:fd:ab:b4:
                    1d:ea:41:b4:4a:d5:5b:de:55:e8:39:6f:31:3e:e8:
                    6b:49:ad:6e:47:99:e7:c6:ff:8c:1d:5d:aa:ce:bb:
                    47:df:41:6d:62:eb:4c:a8:20:9b:ff:8d:c7:ad:4a:
                    6e:65:64:a2:c5:85:81:53:f2:9d:c7:ab:d1:e7:a6:
                    ef:e9:fc:a4:06:86:5e:bd:f5:e2:c0:3d:25:29:81:
                    05:e5:02:62:54:0c:50:89:72:4f:30:50:8d:35:cd:
                    77:81:b3:d9:81:64:df:fa:b2:95:59:05:68:3c:ce:
                    a1:c9:f6:c6:d6:14:8b:a2:1f:24:eb:8b:da:38:c4:
                    ed:37:0c:12:39:c4:97:ad:10:6c:7c:b3:36:d5:ef:
                    2e:dc:23:4c:97:48:20:32:d6:7c:92:36:20:b7:cd:
                    ea:b1:67:b5:d5:25:a3:13:d3:58:55:c0:6e:46:97:
                    c0:d7:4c:53:38:2d:12:ba:62:f8:41:cb:bf:c0:42:
                    79:a0:a7:49:2a:12:c0:b5:d9:5d:dc:33:cd:c1:ec:
                    f9:94:02:9b:ca:d2:39:65:74:1b:be:55:f7:6e:98:
                    ad:b4:19:98:8b:26:e3:12:03:01:ad:51:47:58:4f:
                    b9:03
                Exponent: 65537 (0x10001)
        X509v3 extensions:
            X509v3 Subject Key Identifier: 
                D2:C3:7D:77:9F:A5:AB:A6:9C:D8:BC:EF:98:48:04:12:24:DE:A1:DA
            X509v3 Authority Key Identifier: 
                keyid:E6:9B:D3:E4:B3:89:0F:62:97:47:80:22:17:64:96:CF:11:90:F2:BC
                DirName:/CN=Root CA/O=Development VM/C=NL
                serial:00

            X509v3 Basic Constraints: critical
                CA:FALSE, pathlen:0
            X509v3 Key Usage: critical
                Digital Signature, Key Encipherment
            X509v3 Extended Key Usage: critical
                TLS Web Server Authentication
    Signature Algorithm: sha256WithRSAEncryption
         64:9f:77:07:5e:1b:bb:b8:7b:be:3c:f0:94:87:8c:46:ce:37:
         7c:dd:64:0e:09:52:0f:24:cf:6a:39:b2:f9:7f:4b:fd:06:eb:
         2b:32:d5:ed:a2:0d:ff:26:37:50:d7:46:ea:e6:79:82:70:96:
         64:af:a6:76:27:e3:33:99:d3:be:bf:f4:70:1c:91:ab:c3:f7:
         32:0f:09:3b:6a:c5:f5:45:39:a6:52:13:e6:a8:a0:fe:3f:40:
         91:58:75:b9:0e:98:35:12:6f:95:cc:16:85:78:d9:4d:9d:c6:
         fa:92:14:69:ad:37:65:0f:d9:f8:21:91:c4:03:1f:51:69:d3:
         7f:17:17:6b:78:c4:f9:93:23:1c:1b:33:4c:3c:64:a8:d2:1c:
         55:1c:77:76:d6:a6:2f:13:3a:12:62:59:e9:b3:78:3b:b4:7d:
         00:ab:4d:15:4c:e5:25:09:b3:4f:6c:51:7b:10:b6:be:79:65:
         cc:0e:16:b7:7d:19:e8:1e:fc:26:e4:c1:90:22:bd:2c:9a:cf:
         7f:b0:b8:93:ef:29:5b:dd:ed:8b:59:ac:97:1e:fb:39:d8:38:
         00:26:18:d6:f9:89:c5:c1:f8:55:d7:8c:67:51:65:b1:96:66:
         e4:d1:89:42:f4:78:1e:2b:ec:da:0e:a0:58:b8:e6:67:57:ed:
         a6:b7:52:46:44:d6:ea:5c:14:e7:31:46:8b:41:c5:b6:34:0e:
         37:29:7d:e3:23:ab:13:00:f4:ad:dc:b5:ef:f6:a3:91:43:c7:
         df:1b:1d:eb:34:57:4b:63:86:cd:64:f9:e8:b8:cf:83:f6:2e:
         60:79:4d:31:c2:a6:f2:2b:ff:b1:0b:87:74:4b:73:9b:72:87:
         11:4f:9c:2b:6a:df:dc:d5:19:fb:08:17:79:a1:17:1f:50:d3:
         f7:af:de:87:09:45:39:30:2e:b3:64:79:cc:72:60:b1:18:e4:
         68:73:c5:73:e0:32:6f:51:08:6f:57:ad:03:3f:1d:c9:af:da:
         05:00:3e:50:56:8c:35:dd:1d:6a:fd:d3:f5:81:63:72:fe:dc:
         24:94:ab:29:2c:a5:07:c6:2a:b4:32:fd:0a:92:ef:6f:5f:93:
         78:81:9f:72:91:27:40:99:72:ba:8d:7a:ad:03:05:7a:0c:4d:
         f4:1e:9b:8f:62:23:6e:ad:3e:2a:9b:f0:b1:90:e6:d5:3e:1c:
         9d:04:c9:16:f9:31:dd:1d:04:70:dc:ed:dc:5a:69:d8:08:a7:
         e0:39:ff:43:74:61:08:fd:6b:6a:f4:89:1c:ba:b5:4c:55:ee:
         1e:76:09:06:db:2e:f5:26:31:2b:b3:a4:44:ed:86:80:42:03:
         ea:86:d9:ed:11:d2:04:a1
-----BEGIN CERTIFICATE-----
MIIEyzCCArOgAwIBAgIRANkLx13ZMeyoRBIPb9LjV3owDQYJKoZIhvcNAQELBQAw
ODEQMA4GA1UEAwwHUm9vdCBDQTEXMBUGA1UECgwORGV2ZWxvcG1lbnQgVk0xCzAJ
BgNVBAYTAk5MMB4XDTIwMDkwMTEwMTYzN1oXDTIzMDkwMTEwMTYzN1owSjELMAkG
A1UEBhMCTkwxFzAVBgNVBAoMDkRldmVsb3BtZW50IFZNMSIwIAYDVQQDDBltYW5h
Z2Uuc3RlcHVwLmV4YW1wbGUuY29tMIIBIjANBgkqhkiG9w0BAQEFAAOCAQ8AMIIB
CgKCAQEAv3NxXPa9C6D8aXv87wvfNhc07f30vRpdj+D9q7Qd6kG0StVb3lXoOW8x
PuhrSa1uR5nnxv+MHV2qzrtH30FtYutMqCCb/43HrUpuZWSixYWBU/Kdx6vR56bv
6fykBoZevfXiwD0lKYEF5QJiVAxQiXJPMFCNNc13gbPZgWTf+rKVWQVoPM6hyfbG
1hSLoh8k64vaOMTtNwwSOcSXrRBsfLM21e8u3CNMl0ggMtZ8kjYgt83qsWe11SWj
E9NYVcBuRpfA10xTOC0SumL4Qcu/wEJ5oKdJKhLAtdld3DPNwez5lAKbytI5ZXQb
vlX3bpittBmYiybjEgMBrVFHWE+5AwIDAQABo4G9MIG6MB0GA1UdDgQWBBTSw313
n6WrppzYvO+YSAQSJN6h2jBgBgNVHSMEWTBXgBTmm9Pks4kPYpdHgCIXZJbPEZDy
vKE8pDowODEQMA4GA1UEAwwHUm9vdCBDQTEXMBUGA1UECgwORGV2ZWxvcG1lbnQg
Vk0xCzAJBgNVBAYTAk5MggEAMA8GA1UdEwEB/wQFMAMCAQAwDgYDVR0PAQH/BAQD
AgWgMBYGA1UdJQEB/wQMMAoGCCsGAQUFBwMBMA0GCSqGSIb3DQEBCwUAA4ICAQBk
n3cHXhu7uHu+PPCUh4xGzjd83WQOCVIPJM9qObL5f0v9BusrMtXtog3/JjdQ10bq
5nmCcJZkr6Z2J+MzmdO+v/RwHJGrw/cyDwk7asX1RTmmUhPmqKD+P0CRWHW5Dpg1
Em+VzBaFeNlNncb6khRprTdlD9n4IZHEAx9RadN/FxdreMT5kyMcGzNMPGSo0hxV
HHd21qYvEzoSYlnps3g7tH0Aq00VTOUlCbNPbFF7ELa+eWXMDha3fRnoHvwm5MGQ
Ir0sms9/sLiT7ylb3e2LWayXHvs52DgAJhjW+YnFwfhV14xnUWWxlmbk0YlC9Hge
K+zaDqBYuOZnV+2mt1JGRNbqXBTnMUaLQcW2NA43KX3jI6sTAPSt3LXv9qORQ8ff
Gx3rNFdLY4bNZPnouM+D9i5geU0xwqbyK/+xC4d0S3ObcocRT5wrat/c1Rn7CBd5
oRcfUNP3r96HCUU5MC6zZHnMcmCxGORoc8Vz4DJvUQhvV60DPx3Jr9oFAD5QVow1
3R1q/dP1gWNy/twklKspLKUHxiq0Mv0Kku9vX5N4gZ9ykSdAmXK6jXqtAwV6DE30
HpuPYiNurT4qm/CxkObVPhydBMkW+THdHQRw3O3cWmnYCKfgOf9DdGEI/Wtq9Ikc
urVMVe4edgkG2y71JjErs6RE7YaAQgPqhtntEdIEoQ==
-----END CERTIFICATE-----
