Certificate:
    Data:
        Version: 3 (0x2)
        Serial Number:
            d9:0b:c7:5d:d9:31:ec:a8:44:12:0f:6f:d2:e3:57:7d
    Signature Algorithm: sha256WithRSAEncryption
        Issuer: CN=Root CA, O=Development VM, C=NL
        Validity
            Not Before: Sep  1 10:16:38 2020 GMT
            Not After : Sep  1 10:16:38 2023 GMT
        Subject: C=NL, O=Development VM, CN=webauthn.stepup.example.com
        Subject Public Key Info:
            Public Key Algorithm: rsaEncryption
                Public-Key: (2048 bit)
                Modulus:
                    00:c3:58:22:ce:77:e6:e2:70:d7:ff:49:7c:a3:12:
                    c0:51:c2:da:7d:a3:5e:c9:31:2a:b6:44:94:5f:4e:
                    81:98:b1:4a:e2:fa:84:2d:45:c6:2c:d9:87:7b:a0:
                    5d:9f:2a:68:61:b6:be:9a:60:ba:b3:7b:79:7f:3b:
                    0c:35:24:5f:85:90:13:41:0b:06:76:51:14:13:86:
                    5c:03:08:47:df:5b:c9:06:54:9a:60:d6:0d:86:63:
                    a2:78:e1:71:8c:2b:7c:1a:a8:70:13:13:c2:81:d2:
                    88:f6:79:96:3a:17:e5:77:aa:00:b1:31:b4:28:24:
                    04:82:da:5a:d2:3f:b9:0c:04:c1:ec:a8:e0:98:61:
                    1f:23:f4:c6:1f:f3:5b:b1:d0:81:85:66:10:f1:fb:
                    6e:1e:3b:d3:37:65:ef:d2:97:c3:1f:d2:7b:74:2e:
                    67:7f:8c:e0:6b:d0:e0:ec:4a:72:ab:70:6a:de:94:
                    30:1d:4f:4b:e0:fd:9c:3c:70:98:8f:fc:4c:f0:bf:
                    95:a0:24:a5:50:19:4c:6d:67:27:d3:44:18:0f:2f:
                    04:62:e5:46:bf:a7:0d:fb:0e:ac:6c:15:93:e8:44:
                    96:ef:e5:b9:fa:96:90:ab:18:d2:a8:b7:0f:70:ee:
                    f0:7c:3b:03:d4:ed:c4:88:90:46:ca:e4:d7:f5:f2:
                    3c:73
                Exponent: 65537 (0x10001)
        X509v3 extensions:
            X509v3 Subject Key Identifier: 
                E4:38:DF:55:11:21:D0:4C:68:0A:F4:C6:07:0F:FB:47:93:1E:92:0C
            X509v3 Authority Key Identifier: 
                keyid:E6:9B:D3:E4:B3:89:0F:62:97:47:80:22:17:64:96:CF:11:90:F2:BC
                DirName:/CN=Root CA/O=Development VM/C=NL
                serial:00

            X509v3 Basic Constraints: critical
                CA:FALSE, pathlen:0
            X509v3 Key Usage: critical
                Digital Signature, Key Encipherment
            X509v3 Extended Key Usage: critical
                TLS Web Server Authentication
    Signature Algorithm: sha256WithRSAEncryption
         73:43:8f:95:95:8e:ec:75:ca:f7:3a:ee:1a:40:af:63:da:a1:
         bd:1b:fc:3d:19:d8:6e:4c:04:16:ef:7f:0b:6f:8f:53:3a:1e:
         1f:67:a0:1b:52:0e:34:25:dc:af:19:ee:54:b9:d7:06:8b:8a:
         4d:ba:41:9c:06:a9:9e:c1:59:d8:35:94:bb:b9:97:6e:c0:c7:
         55:6c:0c:4d:f6:dc:3c:2c:d0:7f:f2:01:32:19:97:39:e5:41:
         54:a0:2d:bf:61:ea:17:10:6b:6e:58:b2:2a:15:52:3b:b1:10:
         86:04:cd:73:6e:cd:76:d4:57:49:b3:8b:a0:f2:9b:50:53:55:
         83:31:eb:4f:7b:70:59:a6:45:4c:32:79:99:ed:88:64:eb:65:
         66:eb:e3:e1:eb:7e:7d:5f:d1:dc:2e:e7:9b:e0:aa:8d:82:c8:
         7b:94:88:f2:19:f9:df:2d:f0:df:06:d0:de:c9:44:2d:27:8b:
         bd:32:8a:38:a1:6a:a4:cd:83:70:d3:5b:0a:0e:13:1d:40:57:
         24:d4:82:2c:ff:39:21:b6:ef:f8:08:2e:43:0f:21:0c:31:01:
         1e:99:21:3b:05:d5:62:60:1a:99:12:af:fc:87:d5:c4:3a:de:
         fb:94:10:56:47:de:f1:e7:9e:e5:3b:a2:b1:ba:ee:fd:dc:97:
         67:e1:78:f8:ff:b6:60:4e:06:50:cf:45:fc:a8:fe:a4:5a:52:
         85:a7:5f:e4:f4:71:96:63:61:ea:9d:68:64:24:12:c7:13:ff:
         5c:60:d7:e2:4d:68:85:54:dc:a4:4f:ca:dc:f4:4d:62:21:19:
         5f:8b:28:f0:fe:a6:e6:30:4a:12:fb:35:17:d6:48:e0:aa:60:
         af:1c:1b:23:57:c9:c7:81:f3:b6:f4:a9:40:1e:95:e6:3b:0e:
         1d:67:7f:4b:0c:50:f8:f2:7c:64:36:94:83:71:55:2f:7f:a0:
         88:3a:9f:63:3d:6f:43:2e:c2:33:3a:f2:5e:fd:85:20:4e:35:
         7b:63:3f:20:46:82:7d:31:7c:c4:11:8d:45:a1:94:1e:8c:ae:
         b5:aa:4c:30:cc:31:b7:89:a9:49:a0:54:db:6f:89:9f:fc:25:
         c6:43:95:e7:e7:91:53:b8:e8:0c:6d:4c:ee:ec:6a:86:e7:0d:
         db:a3:65:22:9a:16:9b:ad:06:2c:5c:ad:3b:e7:87:5d:49:5a:
         14:7b:b7:de:3c:55:14:49:18:1c:c6:44:15:84:52:d7:1d:34:
         ef:e5:7c:54:fc:db:80:67:e8:21:f3:8e:a6:98:63:73:b9:f8:
         ee:9d:d3:a7:a6:ec:47:83:46:42:11:5b:3a:d6:3a:d3:61:41:
         0a:89:91:81:91:8b:c5:05
-----BEGIN CERTIFICATE-----
MIIEzTCCArWgAwIBAgIRANkLx13ZMeyoRBIPb9LjV30wDQYJKoZIhvcNAQELBQAw
ODEQMA4GA1UEAwwHUm9vdCBDQTEXMBUGA1UECgwORGV2ZWxvcG1lbnQgVk0xCzAJ
BgNVBAYTAk5MMB4XDTIwMDkwMTEwMTYzOFoXDTIzMDkwMTEwMTYzOFowTDELMAkG
A1UEBhMCTkwxFzAVBgNVBAoMDkRldmVsb3BtZW50IFZNMSQwIgYDVQQDDBt3ZWJh
dXRobi5zdGVwdXAuZXhhbXBsZS5jb20wggEiMA0GCSqGSIb3DQEBAQUAA4IBDwAw
ggEKAoIBAQDDWCLOd+bicNf/SXyjEsBRwtp9o17JMSq2RJRfToGYsUri+oQtRcYs
2Yd7oF2fKmhhtr6aYLqze3l/Oww1JF+FkBNBCwZ2URQThlwDCEffW8kGVJpg1g2G
Y6J44XGMK3waqHATE8KB0oj2eZY6F+V3qgCxMbQoJASC2lrSP7kMBMHsqOCYYR8j
9MYf81ux0IGFZhDx+24eO9M3Ze/Sl8Mf0nt0Lmd/jOBr0ODsSnKrcGrelDAdT0vg
/Zw8cJiP/Ezwv5WgJKVQGUxtZyfTRBgPLwRi5Ua/pw37DqxsFZPoRJbv5bn6lpCr
GNKotw9w7vB8OwPU7cSIkEbK5Nf18jxzAgMBAAGjgb0wgbowHQYDVR0OBBYEFOQ4
31URIdBMaAr0xgcP+0eTHpIMMGAGA1UdIwRZMFeAFOab0+SziQ9il0eAIhdkls8R
kPK8oTykOjA4MRAwDgYDVQQDDAdSb290IENBMRcwFQYDVQQKDA5EZXZlbG9wbWVu
dCBWTTELMAkGA1UEBhMCTkyCAQAwDwYDVR0TAQH/BAUwAwIBADAOBgNVHQ8BAf8E
BAMCBaAwFgYDVR0lAQH/BAwwCgYIKwYBBQUHAwEwDQYJKoZIhvcNAQELBQADggIB
AHNDj5WVjux1yvc67hpAr2Paob0b/D0Z2G5MBBbvfwtvj1M6Hh9noBtSDjQl3K8Z
7lS51waLik26QZwGqZ7BWdg1lLu5l27Ax1VsDE323Dws0H/yATIZlznlQVSgLb9h
6hcQa25YsioVUjuxEIYEzXNuzXbUV0mzi6Dym1BTVYMx6097cFmmRUwyeZntiGTr
ZWbr4+Hrfn1f0dwu55vgqo2CyHuUiPIZ+d8t8N8G0N7JRC0ni70yijihaqTNg3DT
WwoOEx1AVyTUgiz/OSG27/gILkMPIQwxAR6ZITsF1WJgGpkSr/yH1cQ63vuUEFZH
3vHnnuU7orG67v3cl2fhePj/tmBOBlDPRfyo/qRaUoWnX+T0cZZjYeqdaGQkEscT
/1xg1+JNaIVU3KRPytz0TWIhGV+LKPD+puYwShL7NRfWSOCqYK8cGyNXyceB87b0
qUAeleY7Dh1nf0sMUPjyfGQ2lINxVS9/oIg6n2M9b0MuwjM68l79hSBONXtjPyBG
gn0xfMQRjUWhlB6MrrWqTDDMMbeJqUmgVNtviZ/8JcZDlefnkVO46AxtTO7saobn
DdujZSKaFputBixcrTvnh11JWhR7t948VRRJGBzGRBWEUtcdNO/lfFT824Bn6CHz
jqaYY3O5+O6d06em7EeDRkIRWzrWOtNhQQqJkYGRi8UF
-----END CERTIFICATE-----
