Certificate:
    Data:
        Version: 3 (0x2)
        Serial Number:
            d9:0b:c7:5d:d9:31:ec:a8:44:12:0f:6f:d2:e3:57:7c
    Signature Algorithm: sha256WithRSAEncryption
        Issuer: CN=Root CA, O=Development VM, C=NL
        Validity
            Not Before: Sep  1 10:16:38 2020 GMT
            Not After : Sep  1 10:16:38 2023 GMT
        Subject: C=NL, O=Development VM, CN=tiqr.stepup.example.com
        Subject Public Key Info:
            Public Key Algorithm: rsaEncryption
                Public-Key: (2048 bit)
                Modulus:
                    00:b6:4e:7d:1d:c9:dd:2a:29:14:db:58:b1:24:08:
                    ad:ed:13:46:91:02:48:8c:62:be:c7:b0:43:ac:a3:
                    c5:d8:0e:0f:2f:41:30:e3:e4:71:96:c7:8d:a9:d3:
                    84:91:8b:e8:5e:7e:ed:f2:59:7a:a4:d2:45:a6:aa:
                    99:b4:27:e1:9b:9d:17:9c:17:0f:43:90:a7:10:12:
                    4d:1f:e6:71:27:12:d7:60:91:47:2a:8a:8c:bf:d9:
                    5c:5c:47:b3:3f:9c:dd:bb:70:fe:6c:05:fb:c7:2e:
                    80:16:c3:26:a0:a3:86:84:2b:00:6f:51:54:1c:15:
                    aa:a8:ab:f8:5a:db:60:6e:b4:d5:d8:d2:02:1e:52:
                    ac:50:73:0d:b9:a3:c0:e4:60:08:91:28:4b:1c:dd:
                    18:79:47:92:16:07:08:cd:88:29:ce:30:10:c2:21:
                    35:7a:e1:ef:49:4e:20:1b:c6:28:09:38:bd:38:76:
                    6a:9f:eb:e8:bc:1a:9b:93:0f:96:6d:7c:1a:cb:bd:
                    d6:44:a4:e1:f5:23:84:8f:a2:e5:9a:e0:57:62:99:
                    76:66:79:58:49:40:f7:21:9d:70:f6:7c:68:05:db:
                    f4:84:b8:31:3d:56:35:11:d3:00:29:fb:e1:42:2c:
                    d6:4f:6f:9e:49:cf:bf:59:05:a4:39:31:dc:eb:fe:
                    ac:11
                Exponent: 65537 (0x10001)
        X509v3 extensions:
            X509v3 Subject Key Identifier: 
                02:B1:0D:FE:11:73:83:0F:93:0F:83:0B:A4:61:67:6F:81:70:5B:28
            X509v3 Authority Key Identifier: 
                keyid:E6:9B:D3:E4:B3:89:0F:62:97:47:80:22:17:64:96:CF:11:90:F2:BC
                DirName:/CN=Root CA/O=Development VM/C=NL
                serial:00

            X509v3 Basic Constraints: critical
                CA:FALSE, pathlen:0
            X509v3 Key Usage: critical
                Digital Signature, Key Encipherment
            X509v3 Extended Key Usage: critical
                TLS Web Server Authentication
    Signature Algorithm: sha256WithRSAEncryption
         77:a1:31:12:a7:30:75:db:1b:b4:6a:cc:f2:55:c6:ee:49:88:
         8a:cb:d3:e6:02:3e:93:1a:88:a1:ba:50:90:9c:61:ac:47:90:
         68:50:9b:2b:11:42:1a:38:a2:38:de:62:92:d7:7e:6a:bf:eb:
         1b:7e:39:4f:8f:af:52:11:57:ec:ff:75:6a:19:5b:c7:d0:5c:
         4f:ed:f2:03:ec:54:f6:1f:36:ab:be:d2:f7:ff:38:5b:b9:0e:
         41:54:79:3d:bd:8d:7f:75:7b:df:ab:eb:8f:9b:84:c0:ce:03:
         47:21:6d:26:dd:5a:c9:7c:25:2d:98:b6:bd:73:04:0a:8b:08:
         0f:60:05:e7:53:06:2d:eb:72:78:5e:0f:1a:73:1f:b8:5f:24:
         d2:26:90:85:61:05:09:bb:bb:40:70:f4:04:36:60:80:14:e7:
         cb:72:bf:25:80:cd:18:34:c5:0a:1e:91:59:cd:5b:35:ac:f9:
         44:c1:2e:ff:dc:44:05:a6:2f:e4:a9:96:97:78:c7:0b:57:e4:
         16:94:19:4e:e1:ed:2a:e6:12:f2:fb:f8:3a:37:44:9c:9e:d1:
         ad:dd:ea:09:28:40:08:39:d6:68:51:b3:91:5b:7a:d5:6f:f6:
         c7:90:e6:1f:d3:7b:08:8b:63:f0:48:92:6d:2d:d3:6b:36:7d:
         dd:c3:3b:2b:24:e6:7d:af:9d:65:17:82:6d:b4:78:d8:0b:a3:
         b8:24:10:f7:fa:79:df:16:8a:51:93:34:36:d2:27:3a:fd:8d:
         88:97:64:bc:33:aa:0f:58:91:54:4b:5a:41:3c:31:2f:4b:6d:
         8a:71:bf:60:c8:87:ee:d3:86:c5:b0:a0:ba:b1:c6:58:8e:63:
         8b:e6:33:5d:55:e0:93:7f:0c:44:ef:a7:d0:3e:52:ef:04:4f:
         e7:74:83:33:3d:7d:de:22:f3:ba:6e:e5:40:02:ec:f5:8b:37:
         3f:dd:b6:5d:c8:ca:9b:12:32:cc:69:e7:91:c4:ce:cd:e4:54:
         fa:b4:dd:15:17:dc:4d:f4:f0:f1:b4:74:93:71:ae:d5:1d:59:
         8f:dc:91:23:a1:a7:f5:ca:b1:d6:99:21:da:50:f6:cd:1b:59:
         eb:a8:87:b3:43:2e:04:f2:46:74:dc:60:62:13:e6:c5:b3:94:
         f2:3d:84:21:bb:19:fa:3a:67:cc:bb:72:c0:59:69:34:e2:d6:
         9f:c8:f6:1b:4b:3c:e3:0e:e4:d0:03:82:bb:ec:e3:5f:d9:4d:
         35:85:c8:7d:e8:c5:6a:ca:35:e1:88:91:b0:3e:0f:58:66:77:
         bf:2c:d3:50:96:a5:5a:4f:cd:d6:3e:ba:89:c9:90:16:fe:41:
         ef:5d:c8:4b:67:56:ce:b9
-----BEGIN CERTIFICATE-----
MIIEyTCCArGgAwIBAgIRANkLx13ZMeyoRBIPb9LjV3wwDQYJKoZIhvcNAQELBQAw
ODEQMA4GA1UEAwwHUm9vdCBDQTEXMBUGA1UECgwORGV2ZWxvcG1lbnQgVk0xCzAJ
BgNVBAYTAk5MMB4XDTIwMDkwMTEwMTYzOFoXDTIzMDkwMTEwMTYzOFowSDELMAkG
A1UEBhMCTkwxFzAVBgNVBAoMDkRldmVsb3BtZW50IFZNMSAwHgYDVQQDDBd0aXFy
LnN0ZXB1cC5leGFtcGxlLmNvbTCCASIwDQYJKoZIhvcNAQEBBQADggEPADCCAQoC
ggEBALZOfR3J3SopFNtYsSQIre0TRpECSIxivsewQ6yjxdgODy9BMOPkcZbHjanT
hJGL6F5+7fJZeqTSRaaqmbQn4ZudF5wXD0OQpxASTR/mcScS12CRRyqKjL/ZXFxH
sz+c3btw/mwF+8cugBbDJqCjhoQrAG9RVBwVqqir+FrbYG601djSAh5SrFBzDbmj
wORgCJEoSxzdGHlHkhYHCM2IKc4wEMIhNXrh70lOIBvGKAk4vTh2ap/r6Lwam5MP
lm18Gsu91kSk4fUjhI+i5ZrgV2KZdmZ5WElA9yGdcPZ8aAXb9IS4MT1WNRHTACn7
4UIs1k9vnknPv1kFpDkx3Ov+rBECAwEAAaOBvTCBujAdBgNVHQ4EFgQUArEN/hFz
gw+TD4MLpGFnb4FwWygwYAYDVR0jBFkwV4AU5pvT5LOJD2KXR4AiF2SWzxGQ8ryh
PKQ6MDgxEDAOBgNVBAMMB1Jvb3QgQ0ExFzAVBgNVBAoMDkRldmVsb3BtZW50IFZN
MQswCQYDVQQGEwJOTIIBADAPBgNVHRMBAf8EBTADAgEAMA4GA1UdDwEB/wQEAwIF
oDAWBgNVHSUBAf8EDDAKBggrBgEFBQcDATANBgkqhkiG9w0BAQsFAAOCAgEAd6Ex
EqcwddsbtGrM8lXG7kmIisvT5gI+kxqIobpQkJxhrEeQaFCbKxFCGjiiON5iktd+
ar/rG345T4+vUhFX7P91ahlbx9BcT+3yA+xU9h82q77S9/84W7kOQVR5Pb2Nf3V7
36vrj5uEwM4DRyFtJt1ayXwlLZi2vXMECosID2AF51MGLetyeF4PGnMfuF8k0iaQ
hWEFCbu7QHD0BDZggBTny3K/JYDNGDTFCh6RWc1bNaz5RMEu/9xEBaYv5KmWl3jH
C1fkFpQZTuHtKuYS8vv4OjdEnJ7Rrd3qCShACDnWaFGzkVt61W/2x5DmH9N7CItj
8EiSbS3TazZ93cM7KyTmfa+dZReCbbR42AujuCQQ9/p53xaKUZM0NtInOv2NiJdk
vDOqD1iRVEtaQTwxL0ttinG/YMiH7tOGxbCgurHGWI5ji+YzXVXgk38MRO+n0D5S
7wRP53SDMz193iLzum7lQALs9Ys3P922XcjKmxIyzGnnkcTOzeRU+rTdFRfcTfTw
8bR0k3Gu1R1Zj9yRI6Gn9cqx1pkh2lD2zRtZ66iHs0MuBPJGdNxgYhPmxbOU8j2E
IbsZ+jpnzLtywFlpNOLWn8j2G0s84w7k0AOCu+zjX9lNNYXIfejFaso14YiRsD4P
WGZ3vyzTUJalWk/N1j66icmQFv5B713IS2dWzrk=
-----END CERTIFICATE-----
