Certificate:
    Data:
        Version: 3 (0x2)
        Serial Number:
            d9:0b:c7:5d:d9:31:ec:a8:44:12:0f:6f:d2:e3:57:81
    Signature Algorithm: sha256WithRSAEncryption
        Issuer: CN=Root CA, O=Development VM, C=NL
        Validity
            Not Before: Sep  1 10:16:38 2020 GMT
            Not After : Sep  1 10:16:38 2023 GMT
        Subject: C=NL, O=Development VM, CN=demo-gssp-2.stepup.example.com
        Subject Public Key Info:
            Public Key Algorithm: rsaEncryption
                Public-Key: (2048 bit)
                Modulus:
                    00:b1:68:86:09:a0:31:4c:b0:ad:2d:32:aa:9b:fc:
                    46:0c:c5:0c:94:84:86:88:9f:ed:d1:2f:22:c1:23:
                    69:a7:ea:68:4a:fc:a6:6d:c6:7c:7f:b7:b0:75:35:
                    a7:41:bd:22:03:f7:b7:c7:95:67:19:66:0d:3a:6e:
                    b2:d5:70:e8:66:bd:a0:ad:7b:33:c9:b6:a6:38:8e:
                    09:34:a5:f0:24:17:bb:4a:79:72:44:0f:b6:45:73:
                    57:a0:9b:80:15:58:ba:16:b4:57:2b:86:b7:0d:08:
                    57:69:35:3b:e8:ed:6b:b2:d8:75:c4:40:e5:91:51:
                    58:f7:e9:cc:c3:32:bb:b5:4b:27:b2:0d:8b:8e:57:
                    0c:ba:81:90:35:ef:3f:77:5a:ae:94:70:e4:fb:32:
                    64:ab:c2:c5:ae:df:cd:6d:19:2b:2c:74:87:e5:f7:
                    f0:40:dd:95:aa:de:f9:9e:30:e3:92:66:af:d2:a1:
                    a1:0a:11:27:92:ce:bc:b7:bf:d2:4f:e0:40:c1:56:
                    61:05:b7:d4:da:c8:ba:9b:c5:0b:8b:9d:2a:24:83:
                    c1:25:a4:8a:8d:bc:fd:a4:49:46:cb:6d:df:1a:4c:
                    33:3b:20:38:af:d0:39:34:04:19:8f:68:4b:a2:e9:
                    42:e7:85:21:c6:06:4c:fa:21:fa:9b:61:2d:c3:25:
                    0a:af
                Exponent: 65537 (0x10001)
        X509v3 extensions:
            X509v3 Subject Key Identifier: 
                AB:41:38:03:F0:4C:3D:51:EE:4A:D9:59:14:AE:09:B5:3B:FE:15:5F
            X509v3 Authority Key Identifier: 
                keyid:E6:9B:D3:E4:B3:89:0F:62:97:47:80:22:17:64:96:CF:11:90:F2:BC
                DirName:/CN=Root CA/O=Development VM/C=NL
                serial:00

            X509v3 Basic Constraints: critical
                CA:FALSE, pathlen:0
            X509v3 Key Usage: critical
                Digital Signature, Key Encipherment
            X509v3 Extended Key Usage: critical
                TLS Web Server Authentication
    Signature Algorithm: sha256WithRSAEncryption
         97:83:ca:a9:ed:80:97:8b:f2:92:07:95:94:8c:fd:1a:f8:19:
         35:c3:9a:91:3c:43:d6:ff:d8:2e:3f:6f:5c:90:3f:5a:00:fa:
         71:b8:eb:10:45:19:26:e9:e6:92:d8:14:54:c5:a5:82:7b:4a:
         f2:92:03:4b:f5:bd:54:a3:63:5a:e3:6f:4e:a4:07:f9:42:0b:
         46:46:81:54:ff:75:7d:cd:b3:4a:e2:c2:5b:f0:66:3b:3b:bc:
         a1:58:c7:35:2b:53:4b:fc:bf:29:b4:18:26:25:72:76:a6:87:
         32:13:e7:8d:b4:d5:55:0f:75:ee:f6:9b:88:e6:f2:54:6d:d4:
         83:75:3e:1b:ca:bf:04:6d:41:40:9e:c3:27:e5:eb:22:30:12:
         5e:a9:98:40:e7:de:ee:39:68:bb:e0:99:f3:74:4a:b6:80:25:
         6f:9b:70:fe:e5:08:7b:d4:10:be:10:5d:8b:15:14:1d:aa:e0:
         21:6e:80:6e:ad:ec:33:a5:bf:18:eb:85:10:7b:93:7e:c9:80:
         9c:8d:bb:41:3e:c1:0f:34:5f:94:6a:1f:27:c3:ca:a9:10:53:
         39:89:f5:4f:b8:fa:49:e2:55:10:fc:5f:63:18:27:4d:ca:12:
         7a:be:a3:49:24:1b:61:42:f6:ab:7b:4e:69:7c:b4:4c:0f:70:
         fd:41:af:ca:88:ad:28:35:ad:00:f1:7c:bb:a3:12:b4:fa:7c:
         cf:9a:b1:87:ef:74:84:d0:35:57:79:73:d0:74:f8:6f:ac:96:
         9a:3c:9d:48:cb:9e:b2:26:1e:6b:3d:ef:09:20:01:3e:93:83:
         71:3e:72:10:a6:41:6a:38:f2:e6:a0:37:61:00:36:a7:41:f7:
         a0:d6:d8:48:45:33:49:a0:2f:88:dc:12:ae:f1:df:73:e3:13:
         22:c8:a6:94:88:56:f1:54:0b:8a:39:60:d1:04:7a:59:58:85:
         c2:dd:63:a6:28:1d:d5:11:eb:22:a0:88:e1:3e:83:2c:ad:4e:
         85:63:3b:2e:7b:9c:ec:af:30:ad:8f:12:f8:0a:ce:0d:94:b9:
         12:b2:2e:3f:c6:4a:54:80:86:21:33:3d:f3:69:a3:5d:66:8b:
         17:6a:85:37:36:5a:51:16:93:d6:9f:2d:22:2f:d2:d3:ea:34:
         67:ee:5c:15:e8:4d:44:b2:c1:54:29:25:4c:65:a7:72:54:12:
         30:90:82:47:a3:9e:26:48:a5:2f:a3:09:97:62:e5:aa:d9:4f:
         e8:3d:61:22:51:7a:59:6b:b7:b2:b2:7f:b8:df:5d:99:e4:23:
         3e:86:6b:e0:23:96:33:78:e8:ce:e7:c8:ce:74:d5:95:b3:f1:
         bf:9f:ca:1c:5a:60:f3:b4
-----BEGIN CERTIFICATE-----
MIIE0DCCArigAwIBAgIRANkLx13ZMeyoRBIPb9LjV4EwDQYJKoZIhvcNAQELBQAw
ODEQMA4GA1UEAwwHUm9vdCBDQTEXMBUGA1UECgwORGV2ZWxvcG1lbnQgVk0xCzAJ
BgNVBAYTAk5MMB4XDTIwMDkwMTEwMTYzOFoXDTIzMDkwMTEwMTYzOFowTzELMAkG
A1UEBhMCTkwxFzAVBgNVBAoMDkRldmVsb3BtZW50IFZNMScwJQYDVQQDDB5kZW1v
LWdzc3AtMi5zdGVwdXAuZXhhbXBsZS5jb20wggEiMA0GCSqGSIb3DQEBAQUAA4IB
DwAwggEKAoIBAQCxaIYJoDFMsK0tMqqb/EYMxQyUhIaIn+3RLyLBI2mn6mhK/KZt
xnx/t7B1NadBvSID97fHlWcZZg06brLVcOhmvaCtezPJtqY4jgk0pfAkF7tKeXJE
D7ZFc1egm4AVWLoWtFcrhrcNCFdpNTvo7Wuy2HXEQOWRUVj36czDMru1SyeyDYuO
Vwy6gZA17z93Wq6UcOT7MmSrwsWu381tGSssdIfl9/BA3ZWq3vmeMOOSZq/SoaEK
ESeSzry3v9JP4EDBVmEFt9TayLqbxQuLnSokg8ElpIqNvP2kSUbLbd8aTDM7IDiv
0Dk0BBmPaEui6ULnhSHGBkz6IfqbYS3DJQqvAgMBAAGjgb0wgbowHQYDVR0OBBYE
FKtBOAPwTD1R7krZWRSuCbU7/hVfMGAGA1UdIwRZMFeAFOab0+SziQ9il0eAIhdk
ls8RkPK8oTykOjA4MRAwDgYDVQQDDAdSb290IENBMRcwFQYDVQQKDA5EZXZlbG9w
bWVudCBWTTELMAkGA1UEBhMCTkyCAQAwDwYDVR0TAQH/BAUwAwIBADAOBgNVHQ8B
Af8EBAMCBaAwFgYDVR0lAQH/BAwwCgYIKwYBBQUHAwEwDQYJKoZIhvcNAQELBQAD
ggIBAJeDyqntgJeL8pIHlZSM/Rr4GTXDmpE8Q9b/2C4/b1yQP1oA+nG46xBFGSbp
5pLYFFTFpYJ7SvKSA0v1vVSjY1rjb06kB/lCC0ZGgVT/dX3Ns0riwlvwZjs7vKFY
xzUrU0v8vym0GCYlcnamhzIT54201VUPde72m4jm8lRt1IN1PhvKvwRtQUCewyfl
6yIwEl6pmEDn3u45aLvgmfN0SraAJW+bcP7lCHvUEL4QXYsVFB2q4CFugG6t7DOl
vxjrhRB7k37JgJyNu0E+wQ80X5RqHyfDyqkQUzmJ9U+4+kniVRD8X2MYJ03KEnq+
o0kkG2FC9qt7Tml8tEwPcP1Br8qIrSg1rQDxfLujErT6fM+asYfvdITQNVd5c9B0
+G+slpo8nUjLnrImHms97wkgAT6Tg3E+chCmQWo48uagN2EANqdB96DW2EhFM0mg
L4jcEq7x33PjEyLIppSIVvFUC4o5YNEEellYhcLdY6YoHdUR6yKgiOE+gyytToVj
Oy57nOyvMK2PEvgKzg2UuRKyLj/GSlSAhiEzPfNpo11mixdqhTc2WlEWk9afLSIv
0tPqNGfuXBXoTUSywVQpJUxlp3JUEjCQgkejniZIpS+jCZdi5arZT+g9YSJRellr
t7Kyf7jfXZnkIz6Ga+AjljN46M7nyM501ZWz8b+fyhxaYPO0
-----END CERTIFICATE-----
