Certificate:
    Data:
        Version: 3 (0x2)
        Serial Number:
            d9:0b:c7:5d:d9:31:ec:a8:44:12:0f:6f:d2:e3:57:80
    Signature Algorithm: sha256WithRSAEncryption
        Issuer: CN=Root CA, O=Development VM, C=NL
        Validity
            Not Before: Sep  1 10:16:38 2020 GMT
            Not After : Sep  1 10:16:38 2023 GMT
        Subject: C=NL, O=Development VM, CN=demo-gssp.stepup.example.com
        Subject Public Key Info:
            Public Key Algorithm: rsaEncryption
                Public-Key: (2048 bit)
                Modulus:
                    00:a6:69:33:f6:5e:1f:d4:58:0b:ad:72:1a:3d:5e:
                    45:41:75:e1:03:54:62:26:bb:65:7d:37:88:2b:e3:
                    a2:1b:76:79:75:30:3d:82:29:1b:07:a6:c0:62:03:
                    12:11:d3:3a:55:20:01:c6:94:e1:c9:41:4d:3a:e0:
                    ec:53:f2:fe:7a:cf:c5:ba:47:5c:36:21:06:af:0e:
                    b9:c4:a7:08:f8:6e:fc:54:7d:cc:ae:1a:ee:b0:95:
                    27:d6:a5:11:8c:24:3d:b1:34:a2:78:d3:a5:de:a0:
                    19:9c:bb:f4:1d:7a:90:76:71:e3:42:0c:23:95:69:
                    46:ff:39:1a:5e:13:42:34:2d:68:ed:b9:96:52:92:
                    e5:97:07:53:9e:04:7e:44:22:ae:47:df:af:b5:8d:
                    fe:4e:67:33:6b:11:bf:d0:52:92:ca:8f:6d:4c:c1:
                    74:80:64:89:12:a3:0c:cf:55:88:73:e8:fd:bc:ad:
                    fe:80:59:5b:07:42:92:bc:2b:4f:3c:c2:7a:8f:78:
                    ed:f5:13:d9:dd:a5:b1:79:10:03:fb:a7:c1:9f:66:
                    fb:86:83:cf:92:38:fb:b5:43:b6:3f:24:18:ba:a3:
                    92:b7:f2:54:6b:65:94:d5:0b:75:4d:eb:f3:b9:d6:
                    5f:cc:c2:0b:39:14:3a:d6:0f:e0:0f:09:68:47:4b:
                    50:55
                Exponent: 65537 (0x10001)
        X509v3 extensions:
            X509v3 Subject Key Identifier: 
                5B:16:0A:D9:23:6B:36:76:3B:2F:AC:C9:2D:73:9C:C0:C9:5C:9D:D1
            X509v3 Authority Key Identifier: 
                keyid:E6:9B:D3:E4:B3:89:0F:62:97:47:80:22:17:64:96:CF:11:90:F2:BC
                DirName:/CN=Root CA/O=Development VM/C=NL
                serial:00

            X509v3 Basic Constraints: critical
                CA:FALSE, pathlen:0
            X509v3 Key Usage: critical
                Digital Signature, Key Encipherment
            X509v3 Extended Key Usage: critical
                TLS Web Server Authentication
    Signature Algorithm: sha256WithRSAEncryption
         30:af:7b:31:31:91:b1:3b:c5:46:d2:33:bc:e5:f1:bd:b5:fa:
         19:ac:fe:49:55:85:ad:d3:62:4b:6a:c2:1a:f8:42:cb:ed:db:
         bd:c5:d4:e2:3b:cf:01:52:2b:b9:6a:76:23:38:49:ac:0d:7b:
         0c:31:dd:b0:d4:60:4b:74:80:c3:03:53:9d:86:6e:8b:3f:c5:
         65:29:dc:76:8c:37:51:2a:2e:22:d2:17:da:fa:1c:b5:09:d6:
         76:bd:0a:34:74:e9:26:c4:bb:31:d5:2f:9c:60:0e:d7:8f:e1:
         6a:1f:c6:2e:59:a0:15:15:d6:4c:f4:3b:55:28:fa:82:95:47:
         55:f8:2d:d4:aa:8d:b2:fc:5a:24:2c:5e:1f:f5:fc:38:ec:3b:
         ab:fc:8e:b7:10:d7:8f:bb:48:7b:24:ae:cd:4f:d7:63:8e:98:
         88:71:d4:ed:b7:de:3a:4d:2a:b2:34:5e:74:08:29:18:09:7c:
         dc:00:3f:e0:27:d3:cf:0b:52:03:d0:80:7c:83:fc:6a:25:19:
         b3:8c:ae:c9:59:09:c3:c5:4b:c0:0c:39:1c:2c:78:5a:f1:ee:
         20:4e:d1:45:5d:63:c3:29:13:a3:c1:7a:a2:70:dd:45:c8:62:
         a3:48:4c:c0:dc:99:35:1d:91:6f:e2:bb:87:b0:58:d8:e9:a6:
         80:3b:65:66:31:d9:dd:19:97:78:82:06:f1:85:b6:c6:f2:24:
         64:4c:73:3f:e0:cf:a9:ac:20:36:e1:0f:b0:f2:99:de:5e:74:
         a7:70:7f:bb:c3:57:43:86:b2:2f:9a:b2:2d:ab:6b:77:92:c0:
         a1:b9:98:47:11:9a:08:5b:12:46:c6:06:96:80:5e:c8:52:a4:
         89:20:d8:6b:c8:0a:ec:32:95:9e:5c:53:73:ba:7f:09:99:c8:
         69:cc:62:84:f6:0c:65:b4:24:46:dd:8e:6a:e8:26:6e:4d:fc:
         2f:6a:bd:f4:84:0b:52:ec:c1:3b:5e:3d:68:45:ef:66:86:79:
         b3:e2:ea:fb:39:e2:4f:09:c6:19:3d:e7:36:0a:03:05:b8:97:
         89:09:e4:4a:f3:5e:fb:fe:af:be:7b:a2:75:cc:d4:7f:f2:67:
         56:7f:c5:38:65:26:0a:7c:e2:0e:b0:be:2a:82:32:08:0f:8b:
         0b:7b:10:9d:a5:c3:fe:18:93:80:fb:c4:1e:b1:2b:1f:c6:d4:
         ad:f7:a5:c1:a3:a8:dd:f5:64:e9:5e:75:59:e6:4c:3c:23:54:
         b5:9e:89:e7:51:2a:e1:a2:35:13:4e:5c:3a:c1:ec:ee:0a:dc:
         07:b4:1d:a9:40:30:8b:63:a3:14:52:6d:f0:87:b3:c0:e4:93:
         d2:27:13:80:78:90:54:ab
-----BEGIN CERTIFICATE-----
MIIEzjCCAragAwIBAgIRANkLx13ZMeyoRBIPb9LjV4AwDQYJKoZIhvcNAQELBQAw
ODEQMA4GA1UEAwwHUm9vdCBDQTEXMBUGA1UECgwORGV2ZWxvcG1lbnQgVk0xCzAJ
BgNVBAYTAk5MMB4XDTIwMDkwMTEwMTYzOFoXDTIzMDkwMTEwMTYzOFowTTELMAkG
A1UEBhMCTkwxFzAVBgNVBAoMDkRldmVsb3BtZW50IFZNMSUwIwYDVQQDDBxkZW1v
LWdzc3Auc3RlcHVwLmV4YW1wbGUuY29tMIIBIjANBgkqhkiG9w0BAQEFAAOCAQ8A
MIIBCgKCAQEApmkz9l4f1FgLrXIaPV5FQXXhA1RiJrtlfTeIK+OiG3Z5dTA9gikb
B6bAYgMSEdM6VSABxpThyUFNOuDsU/L+es/FukdcNiEGrw65xKcI+G78VH3Mrhru
sJUn1qURjCQ9sTSieNOl3qAZnLv0HXqQdnHjQgwjlWlG/zkaXhNCNC1o7bmWUpLl
lwdTngR+RCKuR9+vtY3+TmczaxG/0FKSyo9tTMF0gGSJEqMMz1WIc+j9vK3+gFlb
B0KSvCtPPMJ6j3jt9RPZ3aWxeRAD+6fBn2b7hoPPkjj7tUO2PyQYuqOSt/JUa2WU
1Qt1TevzudZfzMILORQ61g/gDwloR0tQVQIDAQABo4G9MIG6MB0GA1UdDgQWBBRb
FgrZI2s2djsvrMktc5zAyVyd0TBgBgNVHSMEWTBXgBTmm9Pks4kPYpdHgCIXZJbP
EZDyvKE8pDowODEQMA4GA1UEAwwHUm9vdCBDQTEXMBUGA1UECgwORGV2ZWxvcG1l
bnQgVk0xCzAJBgNVBAYTAk5MggEAMA8GA1UdEwEB/wQFMAMCAQAwDgYDVR0PAQH/
BAQDAgWgMBYGA1UdJQEB/wQMMAoGCCsGAQUFBwMBMA0GCSqGSIb3DQEBCwUAA4IC
AQAwr3sxMZGxO8VG0jO85fG9tfoZrP5JVYWt02JLasIa+ELL7du9xdTiO88BUiu5
anYjOEmsDXsMMd2w1GBLdIDDA1Odhm6LP8VlKdx2jDdRKi4i0hfa+hy1CdZ2vQo0
dOkmxLsx1S+cYA7Xj+FqH8YuWaAVFdZM9DtVKPqClUdV+C3Uqo2y/FokLF4f9fw4
7Dur/I63ENePu0h7JK7NT9djjpiIcdTtt946TSqyNF50CCkYCXzcAD/gJ9PPC1ID
0IB8g/xqJRmzjK7JWQnDxUvADDkcLHha8e4gTtFFXWPDKROjwXqicN1FyGKjSEzA
3Jk1HZFv4ruHsFjY6aaAO2VmMdndGZd4ggbxhbbG8iRkTHM/4M+prCA24Q+w8pne
XnSncH+7w1dDhrIvmrItq2t3ksChuZhHEZoIWxJGxgaWgF7IUqSJINhryArsMpWe
XFNzun8JmchpzGKE9gxltCRG3Y5q6CZuTfwvar30hAtS7ME7Xj1oRe9mhnmz4ur7
OeJPCcYZPec2CgMFuJeJCeRK8177/q++e6J1zNR/8mdWf8U4ZSYKfOIOsL4qgjII
D4sLexCdpcP+GJOA+8QesSsfxtSt96XBo6jd9WTpXnVZ5kw8I1S1nonnUSrhojUT
Tlw6wezuCtwHtB2pQDCLY6MUUm3wh7PA5JPSJxOAeJBUqw==
-----END CERTIFICATE-----
