Certificate:
    Data:
        Version: 3 (0x2)
        Serial Number:
            d9:0b:c7:5d:d9:31:ec:a8:44:12:0f:6f:d2:e3:57:79
    Signature Algorithm: sha256WithRSAEncryption
        Issuer: CN=Root CA, O=Development VM, C=NL
        Validity
            Not Before: Sep  1 10:16:37 2020 GMT
            Not After : Sep  1 10:16:37 2023 GMT
        Subject: C=NL, O=Development VM, CN=selfservice.stepup.example.com
        Subject Public Key Info:
            Public Key Algorithm: rsaEncryption
                Public-Key: (2048 bit)
                Modulus:
                    00:ca:d3:b0:9e:c5:77:89:eb:48:0e:73:a9:5e:13:
                    9c:1f:a9:c9:86:8b:62:20:8a:c5:61:67:11:2a:04:
                    c8:c7:27:02:63:39:26:a8:cf:bc:d2:c1:28:44:15:
                    91:c8:e2:81:a3:06:3e:82:ed:37:e7:8b:57:3d:92:
                    b7:6e:9c:c9:66:69:59:d4:da:24:fe:3f:2b:06:26:
                    43:9d:ba:22:c8:fd:9a:d8:d5:55:58:db:30:d8:f2:
                    d9:a0:4e:67:44:7d:ce:40:f2:9f:9b:bf:8e:f7:55:
                    06:44:5f:9b:8d:c2:76:8a:69:b5:46:da:d7:2e:c9:
                    01:c7:1b:95:b4:2f:cd:cd:1e:22:69:b2:3e:63:be:
                    7a:d6:d2:0c:8e:ed:b7:e1:c2:62:dd:5d:94:b1:df:
                    7d:67:6c:43:9b:33:a2:24:88:41:c3:ea:bf:ac:af:
                    a2:fc:35:e6:d7:2d:fb:e7:49:28:34:4a:cd:a9:42:
                    02:3d:cc:63:f2:ec:e5:72:76:dc:5f:eb:79:00:88:
                    b2:25:d6:d9:42:31:7c:8a:8e:d5:fd:ba:e1:a7:56:
                    5d:1c:3b:6d:ce:d2:21:19:c5:8c:85:85:50:bf:47:
                    c0:95:fd:15:a6:28:04:16:65:54:3e:ce:31:2c:88:
                    97:eb:3b:3f:4f:05:40:95:6c:c2:5f:07:72:01:82:
                    e2:0b
                Exponent: 65537 (0x10001)
        X509v3 extensions:
            X509v3 Subject Key Identifier: 
                F5:AA:09:1B:AE:44:72:00:74:8D:E8:93:E0:6F:29:B4:59:86:40:19
            X509v3 Authority Key Identifier: 
                keyid:E6:9B:D3:E4:B3:89:0F:62:97:47:80:22:17:64:96:CF:11:90:F2:BC
                DirName:/CN=Root CA/O=Development VM/C=NL
                serial:00

            X509v3 Basic Constraints: critical
                CA:FALSE, pathlen:0
            X509v3 Key Usage: critical
                Digital Signature, Key Encipherment
            X509v3 Extended Key Usage: critical
                TLS Web Server Authentication
    Signature Algorithm: sha256WithRSAEncryption
         a2:94:31:d6:01:ed:90:24:70:4b:b3:27:39:7b:cd:39:45:b6:
         c4:de:f7:61:3c:b7:54:69:19:a3:b2:de:dd:f8:d1:a7:5a:65:
         cd:32:f7:42:67:b0:b9:b5:23:62:c1:69:12:9c:5c:ef:31:0f:
         a0:bf:3f:4e:dd:7c:21:8c:99:80:64:91:d3:39:bf:72:ec:b0:
         b5:02:0a:bb:43:06:a7:46:89:d0:b1:10:29:94:9b:19:1a:35:
         08:13:c7:71:7c:e1:77:26:62:b7:bf:69:a1:72:6d:82:e9:0e:
         6c:0c:db:4b:f4:45:d1:f3:46:ea:7f:bf:60:81:4b:fb:38:92:
         e9:cb:5c:20:1d:66:be:ff:2b:e0:ae:8d:27:44:89:37:51:0d:
         25:29:51:61:cb:2a:bb:46:94:c6:b2:93:e6:0e:c0:5b:a8:dd:
         e6:2d:5a:1a:00:34:c9:79:3d:91:42:bc:6d:89:58:36:f1:24:
         9b:bf:94:2c:9c:39:35:d7:7c:c3:d4:e8:e5:a2:28:90:39:9e:
         a9:4f:2e:89:17:35:28:98:53:13:7c:6f:45:60:65:e9:29:3c:
         9e:31:24:12:ae:17:63:1c:4e:79:d7:9e:e8:05:a8:50:ef:a6:
         32:f1:5e:0a:38:46:ea:cc:df:9a:7e:e4:03:e3:6e:22:78:00:
         80:ab:f4:75:15:1c:16:fa:76:a3:af:e2:3c:4b:47:c2:bb:dc:
         41:5d:fb:bb:aa:20:10:b9:bf:30:c6:45:d2:83:37:8c:c7:32:
         ae:4f:0d:10:3c:f1:17:95:03:be:ac:b3:72:a8:22:ed:e1:5e:
         35:36:13:c1:2f:30:f3:a0:5e:cb:0d:16:5a:7b:7b:e4:3e:97:
         2e:df:ce:f0:67:7d:6c:7a:90:c9:f1:67:dd:3e:7c:71:4d:6d:
         6c:e2:b8:85:32:68:b3:a8:03:fc:b8:89:3f:cc:2c:12:ba:fc:
         60:6f:5a:f3:ce:7c:94:2f:86:a3:44:39:cf:12:d4:15:88:04:
         fc:27:35:a1:3a:55:82:64:b2:20:70:9a:bd:87:d5:d1:47:89:
         f7:c0:38:4c:91:a5:74:18:41:6f:c6:df:49:a4:ba:f1:95:b1:
         33:9a:45:d6:b1:ca:96:ba:f1:e2:dd:90:d7:ca:6a:d7:88:7f:
         bd:12:8b:87:4d:e3:2c:f7:73:1b:9c:8c:55:17:c9:7f:04:fb:
         9f:94:25:77:f2:2e:02:89:b6:39:ce:dc:80:0b:87:5c:0a:41:
         77:7f:4f:2e:b0:56:8d:d6:22:c5:58:cb:89:4c:c3:8c:5f:fb:
         fd:0f:cd:c7:a9:f7:69:3d:08:7f:7e:93:4a:52:6f:07:49:9c:
         5f:e6:7d:cc:f2:b7:82:6b
-----BEGIN CERTIFICATE-----
MIIE0DCCArigAwIBAgIRANkLx13ZMeyoRBIPb9LjV3kwDQYJKoZIhvcNAQELBQAw
ODEQMA4GA1UEAwwHUm9vdCBDQTEXMBUGA1UECgwORGV2ZWxvcG1lbnQgVk0xCzAJ
BgNVBAYTAk5MMB4XDTIwMDkwMTEwMTYzN1oXDTIzMDkwMTEwMTYzN1owTzELMAkG
A1UEBhMCTkwxFzAVBgNVBAoMDkRldmVsb3BtZW50IFZNMScwJQYDVQQDDB5zZWxm
c2VydmljZS5zdGVwdXAuZXhhbXBsZS5jb20wggEiMA0GCSqGSIb3DQEBAQUAA4IB
DwAwggEKAoIBAQDK07CexXeJ60gOc6leE5wfqcmGi2IgisVhZxEqBMjHJwJjOSao
z7zSwShEFZHI4oGjBj6C7Tfni1c9krdunMlmaVnU2iT+PysGJkOduiLI/ZrY1VVY
2zDY8tmgTmdEfc5A8p+bv473VQZEX5uNwnaKabVG2tcuyQHHG5W0L83NHiJpsj5j
vnrW0gyO7bfhwmLdXZSx331nbEObM6IkiEHD6r+sr6L8NebXLfvnSSg0Ss2pQgI9
zGPy7OVydtxf63kAiLIl1tlCMXyKjtX9uuGnVl0cO23O0iEZxYyFhVC/R8CV/RWm
KAQWZVQ+zjEsiJfrOz9PBUCVbMJfB3IBguILAgMBAAGjgb0wgbowHQYDVR0OBBYE
FPWqCRuuRHIAdI3ok+BvKbRZhkAZMGAGA1UdIwRZMFeAFOab0+SziQ9il0eAIhdk
ls8RkPK8oTykOjA4MRAwDgYDVQQDDAdSb290IENBMRcwFQYDVQQKDA5EZXZlbG9w
bWVudCBWTTELMAkGA1UEBhMCTkyCAQAwDwYDVR0TAQH/BAUwAwIBADAOBgNVHQ8B
Af8EBAMCBaAwFgYDVR0lAQH/BAwwCgYIKwYBBQUHAwEwDQYJKoZIhvcNAQELBQAD
ggIBAKKUMdYB7ZAkcEuzJzl7zTlFtsTe92E8t1RpGaOy3t340adaZc0y90JnsLm1
I2LBaRKcXO8xD6C/P07dfCGMmYBkkdM5v3LssLUCCrtDBqdGidCxECmUmxkaNQgT
x3F84XcmYre/aaFybYLpDmwM20v0RdHzRup/v2CBS/s4kunLXCAdZr7/K+CujSdE
iTdRDSUpUWHLKrtGlMayk+YOwFuo3eYtWhoANMl5PZFCvG2JWDbxJJu/lCycOTXX
fMPU6OWiKJA5nqlPLokXNSiYUxN8b0VgZekpPJ4xJBKuF2McTnnXnugFqFDvpjLx
Xgo4RurM35p+5APjbiJ4AICr9HUVHBb6dqOv4jxLR8K73EFd+7uqIBC5vzDGRdKD
N4zHMq5PDRA88ReVA76ss3KoIu3hXjU2E8EvMPOgXssNFlp7e+Q+ly7fzvBnfWx6
kMnxZ90+fHFNbWziuIUyaLOoA/y4iT/MLBK6/GBvWvPOfJQvhqNEOc8S1BWIBPwn
NaE6VYJksiBwmr2H1dFHiffAOEyRpXQYQW/G30mkuvGVsTOaRdaxypa68eLdkNfK
ateIf70Si4dN4yz3cxucjFUXyX8E+5+UJXfyLgKJtjnO3IALh1wKQXd/Ty6wVo3W
IsVYy4lMw4xf+/0Pzcep92k9CH9+k0pSbwdJnF/mfczyt4Jr
-----END CERTIFICATE-----
