Certificate:
    Data:
        Version: 3 (0x2)
        Serial Number:
            d9:0b:c7:5d:d9:31:ec:a8:44:12:0f:6f:d2:e3:57:7b
    Signature Algorithm: sha256WithRSAEncryption
        Issuer: CN=Root CA, O=Development VM, C=NL
        Validity
            Not Before: Sep  1 10:16:37 2020 GMT
            Not After : Sep  1 10:16:37 2023 GMT
        Subject: C=NL, O=Development VM, CN=middleware.stepup.example.com
        Subject Public Key Info:
            Public Key Algorithm: rsaEncryption
                Public-Key: (2048 bit)
                Modulus:
                    00:e8:c3:41:16:5e:44:8b:a0:1c:ce:8f:f7:ed:c4:
                    84:ec:cb:7a:29:02:8a:38:0f:a4:1e:24:2c:18:c7:
                    39:c0:31:07:90:d5:ae:70:1b:41:64:1b:b7:e2:3a:
                    ac:66:15:ab:7f:96:fa:d8:8d:77:22:65:d8:1d:c7:
                    b5:9c:d3:16:82:c8:cf:b4:6a:2a:e3:56:fd:39:00:
                    61:c7:99:64:71:74:5a:51:1c:c1:72:f3:7b:1f:46:
                    9d:27:94:f1:7b:fb:43:66:d0:c0:12:08:96:07:c6:
                    5f:44:2d:76:9f:cb:53:0d:da:18:f1:f7:70:09:e3:
                    40:24:f5:8a:69:e1:e9:34:5f:29:5a:9b:60:e9:ec:
                    61:cc:1a:aa:f1:ac:7d:e8:2d:1f:0d:d7:be:25:05:
                    b3:55:73:3f:94:1a:f4:a4:80:55:c2:90:d0:17:42:
                    8d:43:1d:2c:11:d5:c7:6d:12:dc:ea:c4:cc:8c:41:
                    7d:5d:a0:9e:58:b8:31:97:61:d0:56:f0:dc:2c:92:
                    75:25:85:c1:db:09:64:41:18:56:38:93:1e:44:88:
                    de:44:17:5d:09:fe:0d:b5:29:80:bc:c3:2e:67:24:
                    88:94:51:e1:95:b7:4d:7a:52:ab:5c:32:01:dc:31:
                    93:a6:57:68:8c:54:09:9c:a5:e7:70:a7:5c:56:e3:
                    2c:1d
                Exponent: 65537 (0x10001)
        X509v3 extensions:
            X509v3 Subject Key Identifier: 
                39:9E:49:8D:B0:41:2C:49:A5:8C:E2:D4:40:43:09:16:CB:F0:03:BC
            X509v3 Authority Key Identifier: 
                keyid:E6:9B:D3:E4:B3:89:0F:62:97:47:80:22:17:64:96:CF:11:90:F2:BC
                DirName:/CN=Root CA/O=Development VM/C=NL
                serial:00

            X509v3 Basic Constraints: critical
                CA:FALSE, pathlen:0
            X509v3 Key Usage: critical
                Digital Signature, Key Encipherment
            X509v3 Extended Key Usage: critical
                TLS Web Server Authentication
    Signature Algorithm: sha256WithRSAEncryption
         2e:64:bc:64:46:5b:c9:73:e6:3c:5f:f0:e1:10:db:02:17:e7:
         50:2a:e3:8f:de:45:28:82:0d:40:5e:2a:69:34:d8:24:ca:5d:
         ed:b9:b7:6b:a9:8b:64:77:1c:43:66:d1:d5:21:72:1b:78:44:
         80:1b:98:ac:a6:ef:09:ee:44:93:66:74:4b:50:fa:a6:9b:25:
         b7:f7:35:31:20:d8:7c:2c:99:e8:a7:71:e1:1a:06:6f:40:56:
         d7:6c:74:bf:d4:8d:0c:05:e7:f8:e5:33:a8:5d:32:4f:28:fd:
         19:60:d1:8e:c3:5b:52:56:d4:c5:11:51:97:9e:c2:9a:f8:66:
         d2:09:7f:5d:98:3b:0b:9b:c9:6f:94:06:77:ae:4a:38:9f:63:
         d8:dd:2a:d8:a1:43:40:fb:80:d4:29:2a:db:da:b0:a0:26:7e:
         85:9b:cb:7f:98:c0:8b:1e:1d:b8:be:03:70:89:19:08:88:c3:
         f2:fd:10:d2:76:9a:b9:ce:8c:5f:41:cc:04:a1:c0:5d:8d:da:
         4b:88:19:14:ec:88:be:7f:30:37:79:1c:94:81:55:f4:d9:e0:
         52:de:cb:f8:ca:e8:97:7e:bd:6f:cd:e6:91:05:51:e3:cf:64:
         3f:c7:31:c0:47:20:5d:78:4c:cb:24:9c:d8:40:e1:a8:44:bc:
         38:bf:d8:8c:a6:18:e9:a1:e4:b1:34:92:60:44:79:46:f3:96:
         db:97:b9:c0:12:3a:5b:7d:17:07:4c:2c:15:9d:84:58:f4:fe:
         07:17:fd:d2:2f:2c:c9:01:63:5b:37:9f:53:05:a6:3c:94:1a:
         65:b9:24:29:1d:d7:e8:d6:49:8d:80:2e:f7:96:6b:47:b0:4b:
         7f:84:8c:73:0e:22:ed:99:dc:c0:e6:81:2e:de:ca:23:50:d4:
         be:73:4e:20:67:ca:73:22:40:01:bc:c7:d5:3d:1f:5f:3d:f2:
         11:6c:14:01:f7:08:89:6b:0a:cd:5b:ce:ca:17:48:38:da:17:
         30:2a:f5:48:06:63:82:e4:2e:1b:b4:69:0b:01:1e:d0:a6:a5:
         d0:71:b4:fb:72:4f:a5:df:f4:de:b9:f4:67:18:b2:af:ab:dd:
         21:f2:15:81:10:8d:b5:9f:3b:4d:eb:c3:d6:e4:e1:48:af:bb:
         1d:fc:2a:64:da:5e:f7:fe:e3:fb:13:92:79:0d:8d:80:80:aa:
         77:a7:1c:e0:26:3c:4a:6d:a2:99:18:6a:e5:63:47:01:18:db:
         0f:32:ff:f4:be:16:72:aa:f8:a1:d3:9b:39:e1:4a:43:85:a8:
         0e:f2:d7:70:6b:cb:ad:8a:50:46:fa:11:75:a9:d1:d3:b1:95:
         69:45:97:77:74:c3:ed:3e
-----BEGIN CERTIFICATE-----
MIIEzzCCAregAwIBAgIRANkLx13ZMeyoRBIPb9LjV3swDQYJKoZIhvcNAQELBQAw
ODEQMA4GA1UEAwwHUm9vdCBDQTEXMBUGA1UECgwORGV2ZWxvcG1lbnQgVk0xCzAJ
BgNVBAYTAk5MMB4XDTIwMDkwMTEwMTYzN1oXDTIzMDkwMTEwMTYzN1owTjELMAkG
A1UEBhMCTkwxFzAVBgNVBAoMDkRldmVsb3BtZW50IFZNMSYwJAYDVQQDDB1taWRk
bGV3YXJlLnN0ZXB1cC5leGFtcGxlLmNvbTCCASIwDQYJKoZIhvcNAQEBBQADggEP
ADCCAQoCggEBAOjDQRZeRIugHM6P9+3EhOzLeikCijgPpB4kLBjHOcAxB5DVrnAb
QWQbt+I6rGYVq3+W+tiNdyJl2B3HtZzTFoLIz7RqKuNW/TkAYceZZHF0WlEcwXLz
ex9GnSeU8Xv7Q2bQwBIIlgfGX0Qtdp/LUw3aGPH3cAnjQCT1imnh6TRfKVqbYOns
YcwaqvGsfegtHw3XviUFs1VzP5Qa9KSAVcKQ0BdCjUMdLBHVx20S3OrEzIxBfV2g
nli4MZdh0Fbw3CySdSWFwdsJZEEYVjiTHkSI3kQXXQn+DbUpgLzDLmckiJRR4ZW3
TXpSq1wyAdwxk6ZXaIxUCZyl53CnXFbjLB0CAwEAAaOBvTCBujAdBgNVHQ4EFgQU
OZ5JjbBBLEmljOLUQEMJFsvwA7wwYAYDVR0jBFkwV4AU5pvT5LOJD2KXR4AiF2SW
zxGQ8ryhPKQ6MDgxEDAOBgNVBAMMB1Jvb3QgQ0ExFzAVBgNVBAoMDkRldmVsb3Bt
ZW50IFZNMQswCQYDVQQGEwJOTIIBADAPBgNVHRMBAf8EBTADAgEAMA4GA1UdDwEB
/wQEAwIFoDAWBgNVHSUBAf8EDDAKBggrBgEFBQcDATANBgkqhkiG9w0BAQsFAAOC
AgEALmS8ZEZbyXPmPF/w4RDbAhfnUCrjj95FKIINQF4qaTTYJMpd7bm3a6mLZHcc
Q2bR1SFyG3hEgBuYrKbvCe5Ek2Z0S1D6ppslt/c1MSDYfCyZ6Kdx4RoGb0BW12x0
v9SNDAXn+OUzqF0yTyj9GWDRjsNbUlbUxRFRl57Cmvhm0gl/XZg7C5vJb5QGd65K
OJ9j2N0q2KFDQPuA1Ckq29qwoCZ+hZvLf5jAix4duL4DcIkZCIjD8v0Q0naauc6M
X0HMBKHAXY3aS4gZFOyIvn8wN3kclIFV9NngUt7L+Mrol369b83mkQVR489kP8cx
wEcgXXhMyySc2EDhqES8OL/YjKYY6aHksTSSYER5RvOW25e5wBI6W30XB0wsFZ2E
WPT+Bxf90i8syQFjWzefUwWmPJQaZbkkKR3X6NZJjYAu95ZrR7BLf4SMcw4i7Znc
wOaBLt7KI1DUvnNOIGfKcyJAAbzH1T0fXz3yEWwUAfcIiWsKzVvOyhdIONoXMCr1
SAZjguQuG7RpCwEe0Kal0HG0+3JPpd/03rn0Zxiyr6vdIfIVgRCNtZ87TevD1uTh
SK+7HfwqZNpe9/7j+xOSeQ2NgICqd6cc4CY8Sm2imRhq5WNHARjbDzL/9L4Wcqr4
odObOeFKQ4WoDvLXcGvLrYpQRvoRdanR07GVaUWXd3TD7T4=
-----END CERTIFICATE-----
