Certificate:
    Data:
        Version: 3 (0x2)
        Serial Number:
            d9:0b:c7:5d:d9:31:ec:a8:44:12:0f:6f:d2:e3:57:77
    Signature Algorithm: sha256WithRSAEncryption
        Issuer: CN=Root CA, O=Development VM, C=NL
        Validity
            Not Before: Sep  1 10:16:37 2020 GMT
            Not After : Sep  1 10:16:37 2023 GMT
        Subject: C=NL, O=Development VM, CN=gateway.stepup.example.com
        Subject Public Key Info:
            Public Key Algorithm: rsaEncryption
                Public-Key: (2048 bit)
                Modulus:
                    00:b9:55:41:a1:9b:f4:52:1f:26:fd:7c:65:de:5b:
                    ae:65:44:8f:9d:f1:29:23:ee:5e:f0:59:3c:01:93:
                    82:53:e3:4e:ed:1c:de:f5:2b:27:f0:43:1b:b0:e1:
                    39:16:d8:39:f7:a1:1a:60:2e:7a:cf:ae:d2:2f:78:
                    7f:ae:69:41:33:e9:69:b7:de:11:3f:36:5b:54:4a:
                    27:27:71:0d:9f:3e:00:1a:a6:93:78:e0:64:a4:0d:
                    75:25:54:c6:a3:a1:74:14:e9:37:01:7a:ea:e9:03:
                    74:62:a2:32:e6:07:da:0d:66:09:5d:5b:24:a2:81:
                    c5:d3:b7:68:29:35:74:5e:5f:a6:95:a7:6a:d7:a7:
                    22:31:d2:32:ba:9a:1f:c8:a9:0e:96:51:62:ea:92:
                    de:4d:63:30:d5:24:0f:b3:84:f4:a1:3b:14:83:13:
                    35:ac:0f:55:c5:79:de:ae:29:e3:5b:86:79:83:b4:
                    f4:45:a7:b4:bc:86:f6:6c:a8:a3:64:98:85:87:3f:
                    d3:e5:9d:5e:c8:57:ec:c6:43:9f:8c:0f:45:b3:02:
                    68:3b:3c:85:47:ed:11:83:31:f0:59:5e:8e:96:2c:
                    49:cc:82:1a:17:93:fe:f3:83:09:63:0a:5c:af:e2:
                    fc:4d:c2:c5:89:3d:5f:d8:85:51:6f:e8:9c:83:34:
                    5b:51
                Exponent: 65537 (0x10001)
        X509v3 extensions:
            X509v3 Subject Key Identifier: 
                E0:6E:57:EE:55:EF:C7:4B:8F:EA:1B:AD:0F:4B:B0:CB:FC:8E:AA:34
            X509v3 Authority Key Identifier: 
                keyid:E6:9B:D3:E4:B3:89:0F:62:97:47:80:22:17:64:96:CF:11:90:F2:BC
                DirName:/CN=Root CA/O=Development VM/C=NL
                serial:00

            X509v3 Basic Constraints: critical
                CA:FALSE, pathlen:0
            X509v3 Key Usage: critical
                Digital Signature, Key Encipherment
            X509v3 Extended Key Usage: critical
                TLS Web Server Authentication
    Signature Algorithm: sha256WithRSAEncryption
         99:99:e2:67:75:ab:eb:cb:bc:15:79:dc:8a:43:24:1e:cb:ac:
         6e:60:f7:40:b1:3d:c3:8b:a6:23:ec:0a:52:5f:a9:03:36:10:
         d5:12:62:a8:64:18:2e:8a:e5:a5:ad:d2:6b:08:01:18:55:92:
         1d:0e:71:74:bd:be:a9:41:cc:25:92:ad:69:20:1a:1e:14:b7:
         e9:b2:ea:88:1f:e7:e6:bd:fd:10:14:0a:62:55:94:b3:30:59:
         1c:71:e2:17:9d:59:0f:ed:12:cd:83:91:da:d4:01:c7:12:16:
         db:47:79:ea:c0:78:af:9b:56:b5:ac:2d:d2:eb:8c:80:b4:d0:
         e0:1b:4b:20:c1:ab:53:7d:85:ce:be:12:f4:b6:d2:91:5d:42:
         23:b1:4b:8f:35:5f:ce:f8:c4:a1:b0:78:24:e3:07:11:1e:34:
         7d:52:10:a9:45:2e:2a:d9:c8:21:68:45:2a:ec:1a:db:03:f4:
         3a:99:eb:dd:a7:35:51:22:4c:0a:2b:7b:0b:ee:21:2c:b4:78:
         44:9c:e0:21:86:d5:d4:fe:7b:a1:80:f5:1c:cc:a3:40:ea:2b:
         05:26:42:8a:6c:dc:c0:1f:eb:9f:d1:1d:5d:86:b4:dc:95:21:
         be:bb:b7:a1:49:c3:5f:48:92:2e:56:d8:f8:98:f7:4a:91:15:
         36:ee:77:69:5e:ab:44:bc:37:9a:0e:04:4c:44:b5:ae:ad:58:
         92:40:0f:ca:a2:cb:f5:2c:ee:8e:12:f6:e3:15:97:75:96:2b:
         3c:06:13:38:02:44:9f:a1:db:30:7d:40:22:d8:bc:ae:7a:4c:
         3c:fd:f1:e8:a8:7f:50:ae:b4:76:01:41:c9:89:f3:5e:ec:ac:
         8a:43:0e:73:df:2f:5a:9e:ce:2b:c6:c5:cb:c8:e0:1c:6f:56:
         a5:83:f5:4a:7b:81:fe:cd:9e:b0:31:95:62:b9:f9:70:a8:9c:
         64:3a:f1:9b:08:cc:0d:bf:a4:a8:63:b1:45:90:e5:d4:57:e3:
         de:f5:de:70:3c:e5:f1:33:74:f3:37:fb:7f:88:72:40:8b:c9:
         2e:42:61:aa:8d:e7:fc:ee:9a:ff:a9:b2:e3:67:d9:87:84:77:
         a0:87:86:04:f0:59:4b:a4:8e:01:9b:7b:df:ef:a1:be:c2:f1:
         0a:33:4e:0d:10:ee:5e:e3:46:0d:e4:0f:1b:10:09:47:07:f9:
         a6:9b:25:79:19:6d:f5:59:1a:45:eb:00:1d:3d:43:16:94:78:
         06:e4:ce:87:eb:15:83:00:b7:8b:bb:b0:d6:9d:74:c2:42:a1:
         a3:58:96:a4:2a:c1:83:c7:93:a7:2c:a2:f6:29:01:2f:7f:99:
         a4:df:19:34:c6:6c:f8:28
-----BEGIN CERTIFICATE-----
MIIEzDCCArSgAwIBAgIRANkLx13ZMeyoRBIPb9LjV3cwDQYJKoZIhvcNAQELBQAw
ODEQMA4GA1UEAwwHUm9vdCBDQTEXMBUGA1UECgwORGV2ZWxvcG1lbnQgVk0xCzAJ
BgNVBAYTAk5MMB4XDTIwMDkwMTEwMTYzN1oXDTIzMDkwMTEwMTYzN1owSzELMAkG
A1UEBhMCTkwxFzAVBgNVBAoMDkRldmVsb3BtZW50IFZNMSMwIQYDVQQDDBpnYXRl
d2F5LnN0ZXB1cC5leGFtcGxlLmNvbTCCASIwDQYJKoZIhvcNAQEBBQADggEPADCC
AQoCggEBALlVQaGb9FIfJv18Zd5brmVEj53xKSPuXvBZPAGTglPjTu0c3vUrJ/BD
G7DhORbYOfehGmAues+u0i94f65pQTPpabfeET82W1RKJydxDZ8+ABqmk3jgZKQN
dSVUxqOhdBTpNwF66ukDdGKiMuYH2g1mCV1bJKKBxdO3aCk1dF5fppWnatenIjHS
MrqaH8ipDpZRYuqS3k1jMNUkD7OE9KE7FIMTNawPVcV53q4p41uGeYO09EWntLyG
9myoo2SYhYc/0+WdXshX7MZDn4wPRbMCaDs8hUftEYMx8FlejpYsScyCGheT/vOD
CWMKXK/i/E3CxYk9X9iFUW/onIM0W1ECAwEAAaOBvTCBujAdBgNVHQ4EFgQU4G5X
7lXvx0uP6hutD0uwy/yOqjQwYAYDVR0jBFkwV4AU5pvT5LOJD2KXR4AiF2SWzxGQ
8ryhPKQ6MDgxEDAOBgNVBAMMB1Jvb3QgQ0ExFzAVBgNVBAoMDkRldmVsb3BtZW50
IFZNMQswCQYDVQQGEwJOTIIBADAPBgNVHRMBAf8EBTADAgEAMA4GA1UdDwEB/wQE
AwIFoDAWBgNVHSUBAf8EDDAKBggrBgEFBQcDATANBgkqhkiG9w0BAQsFAAOCAgEA
mZniZ3Wr68u8FXncikMkHsusbmD3QLE9w4umI+wKUl+pAzYQ1RJiqGQYLorlpa3S
awgBGFWSHQ5xdL2+qUHMJZKtaSAaHhS36bLqiB/n5r39EBQKYlWUszBZHHHiF51Z
D+0SzYOR2tQBxxIW20d56sB4r5tWtawt0uuMgLTQ4BtLIMGrU32Fzr4S9LbSkV1C
I7FLjzVfzvjEobB4JOMHER40fVIQqUUuKtnIIWhFKuwa2wP0Opnr3ac1USJMCit7
C+4hLLR4RJzgIYbV1P57oYD1HMyjQOorBSZCimzcwB/rn9EdXYa03JUhvru3oUnD
X0iSLlbY+Jj3SpEVNu53aV6rRLw3mg4ETES1rq1YkkAPyqLL9SzujhL24xWXdZYr
PAYTOAJEn6HbMH1AIti8rnpMPP3x6Kh/UK60dgFByYnzXuysikMOc98vWp7OK8bF
y8jgHG9WpYP1SnuB/s2esDGVYrn5cKicZDrxmwjMDb+kqGOxRZDl1Ffj3vXecDzl
8TN08zf7f4hyQIvJLkJhqo3n/O6a/6my42fZh4R3oIeGBPBZS6SOAZt73++hvsLx
CjNODRDuXuNGDeQPGxAJRwf5ppsleRlt9VkaResAHT1DFpR4BuTOh+sVgwC3i7uw
1p10wkKho1iWpCrBg8eTpyyi9ikBL3+ZpN8ZNMZs+Cg=
-----END CERTIFICATE-----
