Certificate:
    Data:
        Version: 3 (0x2)
        Serial Number:
            d9:0b:c7:5d:d9:31:ec:a8:44:12:0f:6f:d2:e3:57:78
    Signature Algorithm: sha256WithRSAEncryption
        Issuer: CN=Root CA, O=Development VM, C=NL
        Validity
            Not Before: Sep  1 10:16:37 2020 GMT
            Not After : Sep  1 10:16:37 2023 GMT
        Subject: C=NL, O=Development VM, CN=ra.stepup.example.com
        Subject Public Key Info:
            Public Key Algorithm: rsaEncryption
                Public-Key: (2048 bit)
                Modulus:
                    00:d5:bc:13:ce:48:92:67:3d:30:57:a5:39:3e:bd:
                    88:b8:db:b6:92:4e:4d:70:64:9a:47:38:ea:da:20:
                    14:df:26:1a:b7:36:ae:7d:d8:3e:41:7c:96:5e:1f:
                    8b:fd:ac:07:bb:d5:c5:80:71:07:0c:96:69:e2:d4:
                    b0:70:7b:a1:35:b6:69:69:a4:b5:02:43:b2:1b:da:
                    b6:ea:06:d7:30:37:bb:a3:e4:79:b4:34:94:fa:ea:
                    0a:21:5a:46:21:6a:db:74:fc:a2:34:d2:92:74:49:
                    7b:a2:f2:f1:e8:a2:86:cd:48:73:7f:04:fd:f7:4b:
                    de:f9:79:7d:8c:1d:3d:fe:0b:97:2e:8a:c6:d8:84:
                    0a:73:d4:e6:61:2a:17:d9:a9:25:28:75:aa:77:4d:
                    e9:d3:e4:d7:b9:ac:1d:40:7c:fa:81:2b:e4:f3:9b:
                    02:a0:96:ab:bc:d6:bf:18:2c:83:32:ec:29:2d:3a:
                    55:78:70:0c:11:70:d3:59:64:c2:79:43:0f:6e:80:
                    36:35:23:e8:94:c0:02:96:fd:41:1e:e5:20:f2:ec:
                    96:1d:ba:cc:75:78:90:3b:49:08:47:8c:2d:eb:24:
                    61:9e:41:af:53:a2:7d:60:41:26:1b:fb:31:3b:af:
                    cb:86:26:c9:76:5c:ec:63:c9:51:b7:0a:18:42:9c:
                    4d:63
                Exponent: 65537 (0x10001)
        X509v3 extensions:
            X509v3 Subject Key Identifier: 
                EB:78:BB:93:64:09:55:35:4C:09:21:E5:B3:48:C1:AB:8F:AD:47:B0
            X509v3 Authority Key Identifier: 
                keyid:E6:9B:D3:E4:B3:89:0F:62:97:47:80:22:17:64:96:CF:11:90:F2:BC
                DirName:/CN=Root CA/O=Development VM/C=NL
                serial:00

            X509v3 Basic Constraints: critical
                CA:FALSE, pathlen:0
            X509v3 Key Usage: critical
                Digital Signature, Key Encipherment
            X509v3 Extended Key Usage: critical
                TLS Web Server Authentication
    Signature Algorithm: sha256WithRSAEncryption
         24:98:1b:c3:74:b9:a4:73:c9:cb:01:f2:42:4c:b1:a3:1c:af:
         a7:71:bb:07:24:de:fa:1c:22:92:c2:dd:69:e4:a8:63:a6:3b:
         d2:6d:f0:9c:a7:66:2d:af:46:17:4b:b3:81:01:d2:9b:d4:c3:
         d9:3f:c8:e8:4c:13:53:0b:0d:07:06:0e:6f:94:2c:0d:75:bd:
         cf:53:49:2d:2e:56:ab:5b:84:ce:a6:74:c1:bb:4d:ef:6d:4a:
         95:41:1f:c4:ae:d3:1a:c7:96:e5:46:2a:96:d2:bf:9d:81:83:
         b3:ee:e0:bb:b0:66:d9:dd:60:dd:66:e8:a7:58:2a:ef:0f:e0:
         06:99:38:12:b4:c0:b0:1f:ba:5d:cc:1f:12:8b:88:ca:84:03:
         5d:37:6c:51:d6:aa:ca:a4:5f:6e:06:69:5b:28:a4:4d:18:72:
         c6:80:de:3b:64:32:51:a4:c7:6f:42:12:91:96:ee:e4:4c:fa:
         ad:bf:a5:d6:47:c7:28:6b:ee:ab:fe:b4:f5:d1:11:e5:42:7c:
         28:40:65:bf:4f:e1:c4:a6:10:c9:9c:4e:34:1a:04:5d:f5:53:
         4e:3b:c7:98:26:3b:a2:77:26:f8:d0:a9:58:4e:c9:ab:b1:87:
         f4:5b:6d:55:7e:0e:99:76:05:56:ff:d5:d9:52:7a:ac:89:12:
         32:72:a0:a6:7d:4a:55:37:c8:ee:25:cd:a5:1c:13:a2:83:c5:
         c4:ec:8c:ed:fd:31:56:b3:05:9d:8a:53:b2:91:13:6d:a9:fc:
         e0:1b:c1:e3:d4:f6:91:2b:b7:0c:6a:b9:2c:89:68:8b:2b:bf:
         0a:7b:f7:1d:76:d5:8e:e8:3f:0a:ba:b3:a5:52:a0:e0:9c:95:
         69:54:56:5f:04:25:fc:58:17:1a:d9:4c:30:ee:e4:ce:4a:c3:
         8a:d9:4f:5a:b7:dd:b0:2c:35:ae:5b:d3:cd:59:ac:3f:87:91:
         06:55:e2:f5:2c:3c:3c:6d:35:1c:eb:b2:58:12:09:8b:0b:2a:
         2d:bd:e4:9b:b7:7f:73:f4:16:e8:f2:1d:50:ed:e2:63:7a:c6:
         e4:38:4f:b8:f6:eb:7c:ec:5f:70:5e:c6:fe:49:28:db:3c:46:
         c6:10:a0:07:b1:cf:61:66:9c:ec:05:19:4a:47:8a:07:4c:dd:
         67:cb:6f:75:11:c5:80:e5:fc:df:cd:4c:f8:1a:5a:6b:25:22:
         2f:36:ba:2d:02:98:cb:55:f0:6a:b5:8f:bc:d0:81:ed:16:7a:
         59:de:b0:3f:fe:18:53:63:6f:11:72:32:4e:ed:28:05:07:52:
         17:85:52:08:20:8d:9c:69:17:ea:ac:0f:c2:35:1b:28:11:d5:
         c8:33:82:2f:48:cb:bf:0a
-----BEGIN CERTIFICATE-----
MIIExzCCAq+gAwIBAgIRANkLx13ZMeyoRBIPb9LjV3gwDQYJKoZIhvcNAQELBQAw
ODEQMA4GA1UEAwwHUm9vdCBDQTEXMBUGA1UECgwORGV2ZWxvcG1lbnQgVk0xCzAJ
BgNVBAYTAk5MMB4XDTIwMDkwMTEwMTYzN1oXDTIzMDkwMTEwMTYzN1owRjELMAkG
A1UEBhMCTkwxFzAVBgNVBAoMDkRldmVsb3BtZW50IFZNMR4wHAYDVQQDDBVyYS5z
dGVwdXAuZXhhbXBsZS5jb20wggEiMA0GCSqGSIb3DQEBAQUAA4IBDwAwggEKAoIB
AQDVvBPOSJJnPTBXpTk+vYi427aSTk1wZJpHOOraIBTfJhq3Nq592D5BfJZeH4v9
rAe71cWAcQcMlmni1LBwe6E1tmlppLUCQ7Ib2rbqBtcwN7uj5Hm0NJT66gohWkYh
att0/KI00pJ0SXui8vHooobNSHN/BP33S975eX2MHT3+C5cuisbYhApz1OZhKhfZ
qSUodap3TenT5Ne5rB1AfPqBK+TzmwKglqu81r8YLIMy7CktOlV4cAwRcNNZZMJ5
Qw9ugDY1I+iUwAKW/UEe5SDy7JYdusx1eJA7SQhHjC3rJGGeQa9Ton1gQSYb+zE7
r8uGJsl2XOxjyVG3ChhCnE1jAgMBAAGjgb0wgbowHQYDVR0OBBYEFOt4u5NkCVU1
TAkh5bNIwauPrUewMGAGA1UdIwRZMFeAFOab0+SziQ9il0eAIhdkls8RkPK8oTyk
OjA4MRAwDgYDVQQDDAdSb290IENBMRcwFQYDVQQKDA5EZXZlbG9wbWVudCBWTTEL
MAkGA1UEBhMCTkyCAQAwDwYDVR0TAQH/BAUwAwIBADAOBgNVHQ8BAf8EBAMCBaAw
FgYDVR0lAQH/BAwwCgYIKwYBBQUHAwEwDQYJKoZIhvcNAQELBQADggIBACSYG8N0
uaRzycsB8kJMsaMcr6dxuwck3vocIpLC3WnkqGOmO9Jt8JynZi2vRhdLs4EB0pvU
w9k/yOhME1MLDQcGDm+ULA11vc9TSS0uVqtbhM6mdMG7Te9tSpVBH8Su0xrHluVG
KpbSv52Bg7Pu4LuwZtndYN1m6KdYKu8P4AaZOBK0wLAful3MHxKLiMqEA103bFHW
qsqkX24GaVsopE0YcsaA3jtkMlGkx29CEpGW7uRM+q2/pdZHxyhr7qv+tPXREeVC
fChAZb9P4cSmEMmcTjQaBF31U047x5gmO6J3JvjQqVhOyauxh/RbbVV+Dpl2BVb/
1dlSeqyJEjJyoKZ9SlU3yO4lzaUcE6KDxcTsjO39MVazBZ2KU7KRE22p/OAbwePU
9pErtwxquSyJaIsrvwp79x121Y7oPwq6s6VSoOCclWlUVl8EJfxYFxrZTDDu5M5K
w4rZT1q33bAsNa5b081ZrD+HkQZV4vUsPDxtNRzrslgSCYsLKi295Ju3f3P0Fujy
HVDt4mN6xuQ4T7j263zsX3Bexv5JKNs8RsYQoAexz2FmnOwFGUpHigdM3WfLb3UR
xYDl/N/NTPgaWmslIi82ui0CmMtV8Gq1j7zQge0WelnesD/+GFNjbxFyMk7tKAUH
UheFUgggjZxpF+qsD8I1GygR1cgzgi9Iy78K
-----END CERTIFICATE-----
