Certificate:
    Data:
        Version: 3 (0x2)
        Serial Number:
            d9:0b:c7:5d:d9:31:ec:a8:44:12:0f:6f:d2:e3:57:7f
    Signature Algorithm: sha256WithRSAEncryption
        Issuer: CN=Root CA, O=Development VM, C=NL
        Validity
            Not Before: Sep  1 10:16:38 2020 GMT
            Not After : Sep  1 10:16:38 2023 GMT
        Subject: C=NL, O=Development VM, CN=simplesaml.stepup.example.com
        Subject Public Key Info:
            Public Key Algorithm: rsaEncryption
                Public-Key: (2048 bit)
                Modulus:
                    00:c8:13:07:14:28:7d:60:4c:60:73:ca:93:f1:90:
                    bd:67:fd:4f:33:25:a4:b2:67:e2:6f:17:3a:38:ac:
                    78:7f:69:e4:f5:1a:fb:c3:5d:f4:a0:8f:9b:66:33:
                    25:65:8e:45:f3:94:db:29:30:91:0c:b7:cf:21:8f:
                    99:02:d0:ae:f0:27:1c:79:f8:98:f2:eb:a9:e2:72:
                    6a:4c:7c:5f:7c:25:a8:03:fc:86:47:a9:af:d8:42:
                    f2:08:5b:b2:a7:df:c9:36:ec:2e:19:14:66:aa:6a:
                    1a:9b:8a:e9:0c:74:9d:2f:d5:e4:74:22:70:dc:d1:
                    e8:ce:7a:91:2d:71:11:3c:c9:1e:26:99:32:6f:28:
                    fe:1a:dd:f1:3a:92:1e:d4:83:38:f2:fd:13:b5:d1:
                    2b:de:c4:e9:4f:b5:6e:29:fe:97:31:44:c1:87:e3:
                    0b:5e:05:a5:e0:03:b2:14:99:45:b4:a8:f3:a4:d7:
                    49:e7:f4:4a:d9:98:49:10:e3:5f:40:91:19:38:29:
                    e6:86:49:d6:a5:29:ef:fd:68:91:b3:0f:b3:c4:14:
                    54:64:19:10:40:4f:3b:5c:4e:d0:2c:3e:05:98:13:
                    8f:fe:57:b4:c6:9e:58:ce:ee:70:51:ad:e3:c7:1f:
                    66:e2:70:63:cc:fd:ee:d4:61:46:f0:ca:78:2c:81:
                    84:cd
                Exponent: 65537 (0x10001)
        X509v3 extensions:
            X509v3 Subject Key Identifier: 
                CD:BB:4C:2F:A3:D9:CD:4F:E8:47:1C:45:44:7C:F7:1D:61:E2:20:7C
            X509v3 Authority Key Identifier: 
                keyid:E6:9B:D3:E4:B3:89:0F:62:97:47:80:22:17:64:96:CF:11:90:F2:BC
                DirName:/CN=Root CA/O=Development VM/C=NL
                serial:00

            X509v3 Basic Constraints: critical
                CA:FALSE, pathlen:0
            X509v3 Key Usage: critical
                Digital Signature, Key Encipherment
            X509v3 Extended Key Usage: critical
                TLS Web Server Authentication
    Signature Algorithm: sha256WithRSAEncryption
         14:f4:6e:be:24:59:0f:00:34:c2:65:94:72:d6:fa:0a:24:6d:
         c6:d2:b4:f2:62:96:e8:21:90:d6:a0:54:8a:9c:ca:90:f0:b4:
         f6:07:ee:0f:44:c7:e5:76:18:ea:4e:0f:72:71:b8:02:10:04:
         c3:9b:f7:b2:e3:d6:e5:cc:bc:11:6e:81:74:10:09:65:63:c3:
         73:0b:93:8a:b4:f5:23:b9:e4:be:4c:a3:4e:3c:47:05:48:20:
         ca:0b:97:39:d0:5d:ce:eb:2a:a8:44:d1:d3:70:ce:da:77:ab:
         e6:c5:08:c2:e3:ce:32:86:d9:4a:8f:41:92:c5:27:f6:03:90:
         21:a9:cc:50:63:38:ea:26:c1:ec:4f:24:07:c5:7d:b5:2d:ae:
         a3:3f:61:a1:bf:46:6f:75:39:75:23:61:93:03:76:ef:d4:d5:
         e9:b4:42:d4:b9:73:71:69:e3:c8:0e:c0:b3:e2:1e:2b:56:45:
         74:98:c9:99:b4:36:f7:3d:81:d9:f8:af:c2:72:52:2f:e1:06:
         47:2f:78:c0:3c:3f:f5:d2:3f:ed:b3:e6:f4:4d:18:bd:9f:03:
         66:95:e1:15:31:65:54:06:35:85:2d:44:cb:d6:e8:b1:f0:68:
         bb:6b:7c:cf:4e:94:f8:48:73:61:c2:a6:c0:23:43:68:4d:b1:
         73:d9:d8:c5:6f:92:9b:29:bc:cc:4f:8f:82:ce:c8:64:8d:24:
         31:ba:34:02:d2:d4:90:9d:a3:4d:5c:d8:c9:1c:03:35:6c:b1:
         53:34:ec:79:e4:8c:25:f3:ec:fa:48:af:26:90:f4:22:a7:0a:
         d2:25:37:67:2c:b6:37:b4:6a:fb:ce:cb:5c:0b:dc:60:ee:15:
         13:d5:3b:f1:f7:d1:76:43:0b:17:9a:6a:81:36:f1:63:31:56:
         24:15:8d:ef:19:5e:eb:11:f6:f7:42:d3:b1:30:5a:91:69:a8:
         df:b1:c6:ce:04:e1:99:6a:94:71:bd:b2:dc:d7:bb:12:91:ad:
         ff:40:1a:75:8a:55:75:df:ef:bf:c2:c5:a9:7a:12:55:ae:00:
         d6:86:a2:1c:28:a9:f0:35:21:cf:4f:b0:3b:64:0a:43:63:fd:
         f8:83:8e:e5:92:a9:d4:24:24:38:56:f1:28:ad:ae:5d:89:5e:
         ec:e6:b7:c3:18:d6:05:3e:95:3a:2f:4d:f0:eb:bd:8f:7b:fe:
         4e:3e:12:61:21:39:5b:1b:a0:7e:40:4a:17:c1:04:0d:c9:25:
         a2:8c:ef:dc:70:29:32:46:83:07:0d:5a:a6:e8:b9:0a:9f:35:
         d9:5e:db:78:21:00:03:60:00:59:09:2c:a1:37:e6:8a:df:c1:
         0d:b6:27:3c:ee:2e:56:aa
-----BEGIN CERTIFICATE-----
MIIEzzCCAregAwIBAgIRANkLx13ZMeyoRBIPb9LjV38wDQYJKoZIhvcNAQELBQAw
ODEQMA4GA1UEAwwHUm9vdCBDQTEXMBUGA1UECgwORGV2ZWxvcG1lbnQgVk0xCzAJ
BgNVBAYTAk5MMB4XDTIwMDkwMTEwMTYzOFoXDTIzMDkwMTEwMTYzOFowTjELMAkG
A1UEBhMCTkwxFzAVBgNVBAoMDkRldmVsb3BtZW50IFZNMSYwJAYDVQQDDB1zaW1w
bGVzYW1sLnN0ZXB1cC5leGFtcGxlLmNvbTCCASIwDQYJKoZIhvcNAQEBBQADggEP
ADCCAQoCggEBAMgTBxQofWBMYHPKk/GQvWf9TzMlpLJn4m8XOjiseH9p5PUa+8Nd
9KCPm2YzJWWORfOU2ykwkQy3zyGPmQLQrvAnHHn4mPLrqeJyakx8X3wlqAP8hkep
r9hC8ghbsqffyTbsLhkUZqpqGpuK6Qx0nS/V5HQicNzR6M56kS1xETzJHiaZMm8o
/hrd8TqSHtSDOPL9E7XRK97E6U+1bin+lzFEwYfjC14FpeADshSZRbSo86TXSef0
StmYSRDjX0CRGTgp5oZJ1qUp7/1okbMPs8QUVGQZEEBPO1xO0Cw+BZgTj/5XtMae
WM7ucFGt48cfZuJwY8z97tRhRvDKeCyBhM0CAwEAAaOBvTCBujAdBgNVHQ4EFgQU
zbtML6PZzU/oRxxFRHz3HWHiIHwwYAYDVR0jBFkwV4AU5pvT5LOJD2KXR4AiF2SW
zxGQ8ryhPKQ6MDgxEDAOBgNVBAMMB1Jvb3QgQ0ExFzAVBgNVBAoMDkRldmVsb3Bt
ZW50IFZNMQswCQYDVQQGEwJOTIIBADAPBgNVHRMBAf8EBTADAgEAMA4GA1UdDwEB
/wQEAwIFoDAWBgNVHSUBAf8EDDAKBggrBgEFBQcDATANBgkqhkiG9w0BAQsFAAOC
AgEAFPRuviRZDwA0wmWUctb6CiRtxtK08mKW6CGQ1qBUipzKkPC09gfuD0TH5XYY
6k4PcnG4AhAEw5v3suPW5cy8EW6BdBAJZWPDcwuTirT1I7nkvkyjTjxHBUggyguX
OdBdzusqqETR03DO2ner5sUIwuPOMobZSo9BksUn9gOQIanMUGM46ibB7E8kB8V9
tS2uoz9hob9Gb3U5dSNhkwN279TV6bRC1LlzcWnjyA7As+IeK1ZFdJjJmbQ29z2B
2fivwnJSL+EGRy94wDw/9dI/7bPm9E0YvZ8DZpXhFTFlVAY1hS1Ey9bosfBou2t8
z06U+EhzYcKmwCNDaE2xc9nYxW+Smym8zE+Pgs7IZI0kMbo0AtLUkJ2jTVzYyRwD
NWyxUzTseeSMJfPs+kivJpD0IqcK0iU3Zyy2N7Rq+87LXAvcYO4VE9U78ffRdkML
F5pqgTbxYzFWJBWN7xle6xH290LTsTBakWmo37HGzgThmWqUcb2y3Ne7EpGt/0Aa
dYpVdd/vv8LFqXoSVa4A1oaiHCip8DUhz0+wO2QKQ2P9+IOO5ZKp1CQkOFbxKK2u
XYle7Oa3wxjWBT6VOi9N8Ou9j3v+Tj4SYSE5WxugfkBKF8EEDckloozv3HApMkaD
Bw1apui5Cp812V7beCEAA2AAWQksoTfmit/BDbYnPO4uVqo=
-----END CERTIFICATE-----
