Certificate:
    Data:
        Version: 3 (0x2)
        Serial Number:
            d9:0b:c7:5d:d9:31:ec:a8:44:12:0f:6f:d2:e3:57:7e
    Signature Algorithm: sha256WithRSAEncryption
        Issuer: CN=Root CA, O=Development VM, C=NL
        Validity
            Not Before: Sep  1 10:16:38 2020 GMT
            Not After : Sep  1 10:16:38 2023 GMT
        Subject: C=NL, O=Development VM, CN=keyserver.stepup.example.com
        Subject Public Key Info:
            Public Key Algorithm: rsaEncryption
                Public-Key: (2048 bit)
                Modulus:
                    00:df:69:1e:2c:f9:d3:b5:7d:3f:9b:8a:a5:90:11:
                    da:20:d4:b0:97:77:82:eb:d3:03:b3:3b:0d:90:9f:
                    b8:fe:2b:98:65:86:76:cf:29:cf:f9:c9:a3:0d:21:
                    54:27:29:5f:56:d5:f2:ff:a2:6d:6d:85:e1:5c:fd:
                    49:0c:84:ed:ec:ce:41:e2:5b:af:cc:2b:a3:ab:8a:
                    80:28:f1:3b:3a:28:1a:01:3a:db:62:1e:6f:26:a6:
                    89:0f:14:39:b9:ec:9c:43:a8:a6:0a:be:f9:82:bb:
                    b7:7b:da:cc:50:e8:01:ca:19:bc:dc:0c:bf:17:61:
                    25:d4:5a:99:1e:a9:6d:50:f2:d7:22:6f:0f:c7:c4:
                    b1:94:ea:3c:33:bf:cc:4b:60:76:f0:37:77:b6:89:
                    75:1d:7e:d3:65:6d:64:56:0b:80:8a:69:d3:fe:4a:
                    b8:98:51:e5:71:ab:14:23:c5:e9:99:9c:14:04:a1:
                    96:c5:5e:bb:b8:2a:df:6e:15:4a:c6:27:c4:34:4d:
                    a9:59:80:9e:e4:f5:eb:03:93:7f:d0:c1:b1:5d:ab:
                    8f:2f:de:65:d0:ee:8c:70:e7:d6:eb:c3:65:13:6e:
                    b6:11:81:b1:eb:19:f7:0e:07:f5:81:ca:5e:25:ad:
                    12:9c:12:e4:44:2c:e6:aa:37:98:05:bc:ef:f0:c7:
                    3a:bb
                Exponent: 65537 (0x10001)
        X509v3 extensions:
            X509v3 Subject Key Identifier: 
                B5:F8:F4:28:8D:CC:67:5E:96:07:E4:FD:28:E6:82:D5:06:1B:E5:2C
            X509v3 Authority Key Identifier: 
                keyid:E6:9B:D3:E4:B3:89:0F:62:97:47:80:22:17:64:96:CF:11:90:F2:BC
                DirName:/CN=Root CA/O=Development VM/C=NL
                serial:00

            X509v3 Basic Constraints: critical
                CA:FALSE, pathlen:0
            X509v3 Key Usage: critical
                Digital Signature, Key Encipherment
            X509v3 Extended Key Usage: critical
                TLS Web Server Authentication
    Signature Algorithm: sha256WithRSAEncryption
         a7:d5:00:f4:0b:87:92:86:69:91:6a:b7:5c:51:dc:3e:4e:25:
         55:74:12:59:5a:f0:44:bf:6e:26:78:11:5f:0f:0c:ed:30:88:
         c4:63:34:57:96:63:5a:1c:5c:9d:09:80:ec:ed:c5:9c:a3:ea:
         d5:90:1f:6b:ac:7b:22:26:2f:2c:76:3e:bf:93:55:91:92:2d:
         c1:04:f3:05:95:51:d7:56:dc:bf:4e:54:19:53:f1:64:de:df:
         d5:98:e7:cf:4c:38:48:f0:ea:fc:f9:51:a9:b6:c0:72:70:ec:
         a3:04:ea:f6:10:49:26:d3:5e:34:5c:90:1c:0b:9e:68:26:fc:
         da:66:ac:19:dd:73:d0:b6:e0:5e:2d:4a:33:b3:fb:2c:92:17:
         2a:43:d3:61:e5:7b:09:6b:a9:4a:2d:dd:e6:33:30:d6:d7:f3:
         f3:7e:50:e0:cc:1c:d5:f6:a1:d1:da:ed:87:5b:13:83:7c:ed:
         71:e9:28:2f:cd:46:12:77:7f:bc:1d:51:1a:d1:48:45:67:d6:
         ed:9b:66:d6:22:25:d0:6f:22:39:69:38:58:35:fc:94:50:01:
         b0:96:05:52:87:e6:4c:f8:8f:14:7f:92:11:18:38:43:f8:1a:
         00:3a:40:c6:57:dd:a8:06:5d:ae:33:c9:5f:b9:2a:40:83:a2:
         a7:14:11:e0:7a:91:ce:77:d0:50:75:58:82:38:8c:ec:34:a5:
         56:17:d0:d3:1c:57:b4:34:8b:df:a9:51:af:2d:c2:e5:8c:f4:
         18:f7:bc:04:91:64:3c:69:69:e1:31:4a:ed:d0:06:22:b8:36:
         e5:1d:b5:89:7a:d8:5b:53:bb:8c:d2:35:79:b1:a3:6a:27:fe:
         5f:5f:51:ec:f1:98:4e:7a:e0:25:bb:4e:a4:1e:01:cc:5f:31:
         11:f1:cf:14:6c:5f:ad:f7:af:88:ea:4d:53:8b:0f:26:58:a5:
         4c:c6:3f:67:f5:28:aa:bb:9e:41:b0:b9:b7:2b:e4:c1:63:85:
         0f:ab:51:5c:16:3a:20:c4:db:3c:58:7f:dd:15:84:96:7b:d5:
         1b:76:33:1b:f9:af:62:bb:1f:a3:d1:04:aa:80:39:b0:2d:7e:
         cb:5a:14:4e:6e:1b:ac:83:9a:89:d7:80:2d:ba:c2:42:6e:60:
         95:13:74:cc:34:af:a7:7c:37:f1:1d:ea:77:55:78:5c:ba:27:
         9e:35:b0:61:31:d1:47:18:e6:3e:12:08:d8:04:1e:f2:60:5f:
         fc:5d:8e:ee:d7:5b:e3:de:01:30:7d:6a:b8:3f:2d:bf:c0:51:
         4f:a1:40:8c:93:68:f5:2c:2d:0a:c2:4b:e0:2c:87:c3:87:15:
         12:08:47:54:2f:a3:f5:50
-----BEGIN CERTIFICATE-----
MIIEzjCCAragAwIBAgIRANkLx13ZMeyoRBIPb9LjV34wDQYJKoZIhvcNAQELBQAw
ODEQMA4GA1UEAwwHUm9vdCBDQTEXMBUGA1UECgwORGV2ZWxvcG1lbnQgVk0xCzAJ
BgNVBAYTAk5MMB4XDTIwMDkwMTEwMTYzOFoXDTIzMDkwMTEwMTYzOFowTTELMAkG
A1UEBhMCTkwxFzAVBgNVBAoMDkRldmVsb3BtZW50IFZNMSUwIwYDVQQDDBxrZXlz
ZXJ2ZXIuc3RlcHVwLmV4YW1wbGUuY29tMIIBIjANBgkqhkiG9w0BAQEFAAOCAQ8A
MIIBCgKCAQEA32keLPnTtX0/m4qlkBHaINSwl3eC69MDszsNkJ+4/iuYZYZ2zynP
+cmjDSFUJylfVtXy/6JtbYXhXP1JDITt7M5B4luvzCujq4qAKPE7OigaATrbYh5v
JqaJDxQ5ueycQ6imCr75gru3e9rMUOgByhm83Ay/F2El1FqZHqltUPLXIm8Px8Sx
lOo8M7/MS2B28Dd3tol1HX7TZW1kVguAimnT/kq4mFHlcasUI8XpmZwUBKGWxV67
uCrfbhVKxifENE2pWYCe5PXrA5N/0MGxXauPL95l0O6McOfW68NlE262EYGx6xn3
Dgf1gcpeJa0SnBLkRCzmqjeYBbzv8Mc6uwIDAQABo4G9MIG6MB0GA1UdDgQWBBS1
+PQojcxnXpYH5P0o5oLVBhvlLDBgBgNVHSMEWTBXgBTmm9Pks4kPYpdHgCIXZJbP
EZDyvKE8pDowODEQMA4GA1UEAwwHUm9vdCBDQTEXMBUGA1UECgwORGV2ZWxvcG1l
bnQgVk0xCzAJBgNVBAYTAk5MggEAMA8GA1UdEwEB/wQFMAMCAQAwDgYDVR0PAQH/
BAQDAgWgMBYGA1UdJQEB/wQMMAoGCCsGAQUFBwMBMA0GCSqGSIb3DQEBCwUAA4IC
AQCn1QD0C4eShmmRardcUdw+TiVVdBJZWvBEv24meBFfDwztMIjEYzRXlmNaHFyd
CYDs7cWco+rVkB9rrHsiJi8sdj6/k1WRki3BBPMFlVHXVty/TlQZU/Fk3t/VmOfP
TDhI8Or8+VGptsBycOyjBOr2EEkm0140XJAcC55oJvzaZqwZ3XPQtuBeLUozs/ss
khcqQ9Nh5XsJa6lKLd3mMzDW1/PzflDgzBzV9qHR2u2HWxODfO1x6SgvzUYSd3+8
HVEa0UhFZ9btm2bWIiXQbyI5aThYNfyUUAGwlgVSh+ZM+I8Uf5IRGDhD+BoAOkDG
V92oBl2uM8lfuSpAg6KnFBHgepHOd9BQdViCOIzsNKVWF9DTHFe0NIvfqVGvLcLl
jPQY97wEkWQ8aWnhMUrt0AYiuDblHbWJethbU7uM0jV5saNqJ/5fX1Hs8ZhOeuAl
u06kHgHMXzER8c8UbF+t96+I6k1Tiw8mWKVMxj9n9Siqu55BsLm3K+TBY4UPq1Fc
FjogxNs8WH/dFYSWe9UbdjMb+a9iux+j0QSqgDmwLX7LWhRObhusg5qJ14AtusJC
bmCVE3TMNK+nfDfxHep3VXhcuieeNbBhMdFHGOY+EgjYBB7yYF/8XY7u11vj3gEw
fWq4Py2/wFFPoUCMk2j1LC0KwkvgLIfDhxUSCEdUL6P1UA==
-----END CERTIFICATE-----
