Certificate:
    Data:
        Version: 3 (0x2)
        Serial Number:
            2c:81:df:e9:37:05:9a:b1:3c:22:24:64:83:6c:64:b5
    Signature Algorithm: sha256WithRSAEncryption
        Issuer: CN=Root CA, O=Development VM, C=NL
        Validity
            Not Before: Sep  1 10:17:05 2020 GMT
            Not After : Sep  1 10:17:05 2023 GMT
        Subject: C=NL, O=Development VM, CN=middleware.stepup.example.com
        Subject Public Key Info:
            Public Key Algorithm: rsaEncryption
                Public-Key: (2048 bit)
                Modulus:
                    00:b9:24:9f:8c:29:7c:8a:d7:55:78:30:29:27:2c:
                    4e:aa:0c:b0:ca:84:60:fc:ee:96:b9:88:57:3c:7b:
                    78:8b:68:19:75:54:e9:0e:62:8c:03:f9:23:10:a0:
                    59:c2:f7:c0:f2:e3:15:67:32:23:10:d7:fb:18:f5:
                    59:c6:6d:8f:da:4d:50:a8:89:52:24:b1:2e:22:d4:
                    a0:e5:19:d8:68:88:9d:f2:16:a2:5b:ea:a2:30:29:
                    30:d9:29:57:88:aa:c3:9d:15:e7:be:ae:a1:b7:0e:
                    e2:79:8a:d8:b8:9f:dc:fe:bd:d8:8d:b6:2b:ff:d0:
                    e8:1c:72:6c:d9:75:21:83:7b:23:fa:46:05:63:3d:
                    3f:d3:fd:df:ac:ba:87:38:06:f7:6e:08:30:bc:98:
                    75:09:93:54:9c:78:cc:eb:0b:9c:c8:b9:74:03:fb:
                    c5:c4:46:08:bd:9e:62:99:88:e4:8e:ce:3a:52:9c:
                    e4:25:81:1f:ef:0a:b4:6a:81:f6:1a:74:ee:0f:8a:
                    bd:7a:e7:f1:8c:b2:e8:25:4f:d7:75:bc:68:d5:2c:
                    27:e1:5c:4a:18:a1:5f:5c:6d:f2:80:78:85:e8:fb:
                    d9:58:8d:4b:fd:85:1c:ab:8f:2b:86:0f:ab:d1:f8:
                    6d:bb:ba:2c:f1:ac:d5:72:14:d2:ec:42:82:1e:18:
                    02:45
                Exponent: 65537 (0x10001)
        X509v3 extensions:
            X509v3 Subject Key Identifier: 
                A2:49:FB:DB:0E:91:D2:EA:01:26:04:D2:AB:43:6E:9B:C1:A5:40:06
            X509v3 Authority Key Identifier: 
                keyid:44:C4:94:1D:E3:D6:19:D9:72:CA:A8:56:A5:E7:9D:6E:3E:EE:42:87
                DirName:/CN=Root CA/O=Development VM/C=NL
                serial:00

            X509v3 Basic Constraints: critical
                CA:FALSE, pathlen:0
            X509v3 Key Usage: critical
                Digital Signature, Key Encipherment
            X509v3 Extended Key Usage: critical
                TLS Web Server Authentication
    Signature Algorithm: sha256WithRSAEncryption
         7a:ad:48:61:9b:57:dc:67:0d:81:c1:48:7a:8a:63:c8:fa:ec:
         09:11:ea:54:18:d1:e5:50:b5:56:cf:55:b8:62:b1:68:48:e5:
         53:43:a5:55:47:6d:08:68:c6:0b:74:69:e8:01:71:9a:52:b7:
         e5:a2:c0:7c:ef:9b:f0:39:e8:21:31:59:7b:96:12:1d:60:21:
         4f:7f:a0:4a:08:6a:9e:cf:0a:20:06:6d:67:d9:a9:a7:23:a5:
         94:3c:ea:bf:6b:88:01:95:00:49:78:3d:29:bc:1c:35:e8:17:
         16:4c:50:a0:e7:4b:9e:b8:2b:cb:81:b5:28:ed:a7:87:bb:05:
         f0:27:24:3c:0b:14:2c:fd:0c:e4:e5:7b:a7:e6:c2:20:8d:7b:
         8f:aa:c3:ec:12:c8:d2:40:5f:59:ca:83:7f:51:5e:ee:cf:c2:
         ab:dd:cf:48:b6:1b:e4:15:84:62:56:de:3f:d4:47:e6:0c:6b:
         67:dd:45:46:23:64:69:4a:65:d6:ff:7c:6b:5a:ce:8a:11:66:
         79:e9:a5:31:04:ca:80:1f:e5:e4:a7:92:69:99:4d:8e:b6:ec:
         f4:73:83:b8:66:6c:8f:09:91:87:23:9f:32:17:74:1d:d4:ff:
         b9:92:61:93:6a:5c:1f:a7:09:7c:b0:9b:62:62:d2:41:62:0b:
         43:60:91:7c:c2:c4:1b:b5:c8:d3:7b:26:c5:76:98:cd:41:76:
         3a:3d:bf:db:12:9d:bb:1d:a9:6f:ec:bb:d2:1a:34:1a:54:bd:
         8d:bc:bf:ed:3c:ba:9e:a3:e8:ef:c7:3c:fa:63:8b:12:54:77:
         d9:f2:83:d3:74:51:04:32:65:97:94:0b:49:94:b8:d3:cb:36:
         91:59:f7:56:56:7e:4e:ab:82:65:6c:1a:5e:8f:f3:d9:1f:95:
         35:0c:45:49:1b:08:66:a0:f1:cc:fc:da:b6:49:2d:5d:48:ef:
         f2:b5:39:6d:86:af:06:30:c4:11:53:a8:b1:f7:fc:8b:da:74:
         c6:69:9a:cf:b1:08:5c:0e:8e:5d:95:3e:21:23:37:d2:60:df:
         27:d2:e9:de:fa:1f:54:c2:08:c2:26:67:cd:cb:3e:9f:a7:0f:
         02:80:9a:f6:6e:d8:9a:36:15:3a:8e:38:c9:50:76:b7:f4:de:
         e6:12:da:91:a2:7c:8a:96:64:1a:f7:71:21:51:30:86:f2:59:
         e7:a7:e7:22:9f:61:40:77:fd:0c:ac:e1:bf:7c:b5:06:40:d7:
         8b:3c:5d:00:e5:4a:d9:af:ef:64:8f:78:d9:08:28:71:33:0c:
         cf:7e:fa:c7:81:04:20:ab:0b:e2:d2:eb:82:4e:db:61:4c:83:
         1d:89:b8:d3:9f:b9:9e:23
-----BEGIN CERTIFICATE-----
MIIEzjCCAragAwIBAgIQLIHf6TcFmrE8IiRkg2xktTANBgkqhkiG9w0BAQsFADA4
MRAwDgYDVQQDDAdSb290IENBMRcwFQYDVQQKDA5EZXZlbG9wbWVudCBWTTELMAkG
A1UEBhMCTkwwHhcNMjAwOTAxMTAxNzA1WhcNMjMwOTAxMTAxNzA1WjBOMQswCQYD
VQQGEwJOTDEXMBUGA1UECgwORGV2ZWxvcG1lbnQgVk0xJjAkBgNVBAMMHW1pZGRs
ZXdhcmUuc3RlcHVwLmV4YW1wbGUuY29tMIIBIjANBgkqhkiG9w0BAQEFAAOCAQ8A
MIIBCgKCAQEAuSSfjCl8itdVeDApJyxOqgywyoRg/O6WuYhXPHt4i2gZdVTpDmKM
A/kjEKBZwvfA8uMVZzIjENf7GPVZxm2P2k1QqIlSJLEuItSg5RnYaIid8haiW+qi
MCkw2SlXiKrDnRXnvq6htw7ieYrYuJ/c/r3YjbYr/9DoHHJs2XUhg3sj+kYFYz0/
0/3frLqHOAb3bggwvJh1CZNUnHjM6wucyLl0A/vFxEYIvZ5imYjkjs46UpzkJYEf
7wq0aoH2GnTuD4q9eufxjLLoJU/Xdbxo1Swn4VxKGKFfXG3ygHiF6PvZWI1L/YUc
q48rhg+r0fhtu7os8azVchTS7EKCHhgCRQIDAQABo4G9MIG6MB0GA1UdDgQWBBSi
SfvbDpHS6gEmBNKrQ26bwaVABjBgBgNVHSMEWTBXgBRExJQd49YZ2XLKqFal551u
Pu5Ch6E8pDowODEQMA4GA1UEAwwHUm9vdCBDQTEXMBUGA1UECgwORGV2ZWxvcG1l
bnQgVk0xCzAJBgNVBAYTAk5MggEAMA8GA1UdEwEB/wQFMAMCAQAwDgYDVR0PAQH/
BAQDAgWgMBYGA1UdJQEB/wQMMAoGCCsGAQUFBwMBMA0GCSqGSIb3DQEBCwUAA4IC
AQB6rUhhm1fcZw2BwUh6imPI+uwJEepUGNHlULVWz1W4YrFoSOVTQ6VVR20IaMYL
dGnoAXGaUrflosB875vwOeghMVl7lhIdYCFPf6BKCGqezwogBm1n2amnI6WUPOq/
a4gBlQBJeD0pvBw16BcWTFCg50ueuCvLgbUo7aeHuwXwJyQ8CxQs/Qzk5Xun5sIg
jXuPqsPsEsjSQF9ZyoN/UV7uz8Kr3c9IthvkFYRiVt4/1EfmDGtn3UVGI2RpSmXW
/3xrWs6KEWZ56aUxBMqAH+Xkp5JpmU2Otuz0c4O4ZmyPCZGHI58yF3Qd1P+5kmGT
alwfpwl8sJtiYtJBYgtDYJF8wsQbtcjTeybFdpjNQXY6Pb/bEp27Halv7LvSGjQa
VL2NvL/tPLqeo+jvxzz6Y4sSVHfZ8oPTdFEEMmWXlAtJlLjTyzaRWfdWVn5Oq4Jl
bBpej/PZH5U1DEVJGwhmoPHM/Nq2SS1dSO/ytTlthq8GMMQRU6ix9/yL2nTGaZrP
sQhcDo5dlT4hIzfSYN8n0une+h9UwgjCJmfNyz6fpw8CgJr2btiaNhU6jjjJUHa3
9N7mEtqRonyKlmQa93EhUTCG8lnnp+cin2FAd/0MrOG/fLUGQNeLPF0A5UrZr+9k
j3jZCChxMwzPfvrHgQQgqwvi0uuCTtthTIMdibjTn7meIw==
-----END CERTIFICATE-----
