Certificate:
    Data:
        Version: 3 (0x2)
        Serial Number:
            2c:81:df:e9:37:05:9a:b1:3c:22:24:64:83:6c:64:b8
    Signature Algorithm: sha256WithRSAEncryption
        Issuer: CN=Root CA, O=Development VM, C=NL
        Validity
            Not Before: Sep  1 10:17:05 2020 GMT
            Not After : Sep  1 10:17:05 2023 GMT
        Subject: C=NL, O=Development VM, CN=keyserver.stepup.example.com
        Subject Public Key Info:
            Public Key Algorithm: rsaEncryption
                Public-Key: (2048 bit)
                Modulus:
                    00:d0:a3:fb:a3:58:44:a9:36:0d:cb:c9:37:55:bc:
                    95:65:e7:d0:50:8a:9d:d6:f6:56:29:fb:b6:1a:ac:
                    6c:64:95:bb:22:9f:de:b1:0d:ba:d1:71:75:6d:b5:
                    0b:54:f8:44:8e:95:fd:de:d8:61:bc:86:07:50:64:
                    27:aa:48:f1:79:65:96:57:cb:c6:4c:5f:73:bd:07:
                    fd:16:48:31:74:26:9f:93:63:e3:57:f7:ad:47:03:
                    c8:e6:ad:c4:c4:8f:64:14:20:50:62:63:26:55:08:
                    7e:8e:f8:c7:42:22:8e:ff:16:d7:af:a2:be:21:89:
                    0b:4e:f9:83:67:0d:4d:d6:37:54:73:7b:2e:39:13:
                    c4:f2:7f:fb:21:a1:6b:d8:9d:77:c8:ca:4e:8e:55:
                    ae:b9:dc:a1:b9:df:86:bb:8e:f1:45:30:a2:98:2e:
                    be:dd:5b:d4:50:b3:12:b8:92:73:3d:1b:af:fd:c3:
                    d7:7a:eb:03:76:50:4f:17:e2:44:bd:57:5c:28:1a:
                    df:73:98:51:6d:72:8d:6f:2e:a5:85:48:15:e7:03:
                    80:03:ab:c3:22:ae:d5:bd:3c:84:a9:eb:d1:af:fd:
                    14:cc:f6:9d:0d:a8:1c:19:98:3e:22:20:3d:a5:e4:
                    2e:ef:90:81:a4:3e:c3:f1:44:2b:1f:f1:c7:97:6d:
                    8b:df
                Exponent: 65537 (0x10001)
        X509v3 extensions:
            X509v3 Subject Key Identifier: 
                9A:E4:53:E7:B3:45:05:C3:52:AC:7A:2B:0C:17:9E:C5:EA:24:78:A2
            X509v3 Authority Key Identifier: 
                keyid:44:C4:94:1D:E3:D6:19:D9:72:CA:A8:56:A5:E7:9D:6E:3E:EE:42:87
                DirName:/CN=Root CA/O=Development VM/C=NL
                serial:00

            X509v3 Basic Constraints: critical
                CA:FALSE, pathlen:0
            X509v3 Key Usage: critical
                Digital Signature, Key Encipherment
            X509v3 Extended Key Usage: critical
                TLS Web Server Authentication
    Signature Algorithm: sha256WithRSAEncryption
         6c:5a:e8:e5:98:23:88:18:ac:09:ff:3a:1e:a0:82:a6:25:fc:
         d2:e5:73:3d:62:39:87:ca:ea:33:15:ad:99:24:d5:4e:75:69:
         0a:d4:85:35:dc:d5:15:1b:62:b6:04:e5:c4:0e:af:54:75:c2:
         41:02:e7:be:ce:88:10:5d:f3:bc:8f:52:e8:8b:7a:9b:07:b6:
         76:5c:5c:9c:55:56:7a:1b:f3:3a:e8:0d:d7:9c:ac:da:7f:0f:
         c3:4f:94:bc:7c:5f:07:31:5d:07:e3:37:1a:5a:f3:ee:f3:c3:
         bb:d4:2c:05:4c:3e:b1:20:ae:d4:8e:a3:3e:d9:7a:2a:ec:29:
         0a:eb:bf:25:7d:b4:0b:ad:c2:8d:20:dd:df:ae:ea:2b:d2:d7:
         85:8a:84:15:8b:e6:67:68:f6:70:1e:ef:6b:a5:3e:3e:6f:30:
         b4:35:6e:5c:fd:3f:55:fd:36:ee:ed:d5:5f:b2:4e:30:06:7f:
         79:96:c2:c5:c4:02:27:3e:c4:68:ee:55:c8:8d:fe:c4:31:e9:
         bc:8f:15:f9:9f:fd:46:b6:7b:0d:e1:8e:de:9f:e4:d9:e3:38:
         a1:23:93:66:68:71:a8:ca:e1:b9:1c:da:73:7f:ab:6e:22:fe:
         1f:80:cd:b9:ca:7d:86:96:73:e2:2c:f9:72:37:e2:65:68:58:
         d6:1a:d4:87:e7:88:2f:ca:d3:73:50:b3:9f:bd:4c:5e:fd:82:
         f8:3e:22:44:62:bd:17:05:f0:46:2b:ba:12:14:14:b8:d4:cc:
         9a:32:e9:0d:87:f9:f3:43:af:df:b3:a7:28:46:2e:bf:fa:57:
         f1:c8:17:1d:39:35:fd:c4:a9:5a:c7:3a:6c:ef:24:89:aa:c2:
         cc:7e:5d:c8:1f:e9:63:b7:18:3c:02:f2:da:fc:d8:7b:95:0f:
         c2:42:89:05:f5:f9:89:90:74:83:81:6c:85:08:ea:f0:3f:96:
         8a:2a:b7:2b:a8:db:19:24:c0:27:97:1b:2c:80:d4:2c:b5:f6:
         82:cd:eb:88:64:e9:17:ad:3b:b0:18:ad:52:6d:8b:54:b5:ad:
         82:55:de:6f:e6:82:e7:a9:a6:28:a6:d2:ba:be:88:dd:7d:42:
         0a:1a:44:62:34:b8:e5:6f:12:b1:8a:1e:14:b7:3d:5b:9c:bb:
         c9:38:c8:ef:bb:8b:2e:1f:b1:aa:9b:40:ce:5b:78:bc:59:a6:
         d7:1e:6a:f9:e7:76:3d:0b:67:eb:5a:91:d7:14:91:9c:25:dd:
         12:f9:09:a8:cc:ea:59:24:dd:88:46:cb:88:b9:6b:a9:5f:b9:
         3a:24:67:bb:92:57:0c:17:34:b3:96:5a:99:a9:b2:af:4d:b8:
         fb:5e:0c:e8:1e:7f:0b:cc
-----BEGIN CERTIFICATE-----
MIIEzTCCArWgAwIBAgIQLIHf6TcFmrE8IiRkg2xkuDANBgkqhkiG9w0BAQsFADA4
MRAwDgYDVQQDDAdSb290IENBMRcwFQYDVQQKDA5EZXZlbG9wbWVudCBWTTELMAkG
A1UEBhMCTkwwHhcNMjAwOTAxMTAxNzA1WhcNMjMwOTAxMTAxNzA1WjBNMQswCQYD
VQQGEwJOTDEXMBUGA1UECgwORGV2ZWxvcG1lbnQgVk0xJTAjBgNVBAMMHGtleXNl
cnZlci5zdGVwdXAuZXhhbXBsZS5jb20wggEiMA0GCSqGSIb3DQEBAQUAA4IBDwAw
ggEKAoIBAQDQo/ujWESpNg3LyTdVvJVl59BQip3W9lYp+7YarGxklbsin96xDbrR
cXVttQtU+ESOlf3e2GG8hgdQZCeqSPF5ZZZXy8ZMX3O9B/0WSDF0Jp+TY+NX961H
A8jmrcTEj2QUIFBiYyZVCH6O+MdCIo7/Ftevor4hiQtO+YNnDU3WN1Rzey45E8Ty
f/shoWvYnXfIyk6OVa653KG534a7jvFFMKKYLr7dW9RQsxK4knM9G6/9w9d66wN2
UE8X4kS9V1woGt9zmFFtco1vLqWFSBXnA4ADq8MirtW9PISp69Gv/RTM9p0NqBwZ
mD4iID2l5C7vkIGkPsPxRCsf8ceXbYvfAgMBAAGjgb0wgbowHQYDVR0OBBYEFJrk
U+ezRQXDUqx6KwwXnsXqJHiiMGAGA1UdIwRZMFeAFETElB3j1hnZcsqoVqXnnW4+
7kKHoTykOjA4MRAwDgYDVQQDDAdSb290IENBMRcwFQYDVQQKDA5EZXZlbG9wbWVu
dCBWTTELMAkGA1UEBhMCTkyCAQAwDwYDVR0TAQH/BAUwAwIBADAOBgNVHQ8BAf8E
BAMCBaAwFgYDVR0lAQH/BAwwCgYIKwYBBQUHAwEwDQYJKoZIhvcNAQELBQADggIB
AGxa6OWYI4gYrAn/Oh6ggqYl/NLlcz1iOYfK6jMVrZkk1U51aQrUhTXc1RUbYrYE
5cQOr1R1wkEC577OiBBd87yPUuiLepsHtnZcXJxVVnob8zroDdecrNp/D8NPlLx8
XwcxXQfjNxpa8+7zw7vULAVMPrEgrtSOoz7ZeirsKQrrvyV9tAutwo0g3d+u6ivS
14WKhBWL5mdo9nAe72ulPj5vMLQ1blz9P1X9Nu7t1V+yTjAGf3mWwsXEAic+xGju
VciN/sQx6byPFfmf/Ua2ew3hjt6f5NnjOKEjk2ZocajK4bkc2nN/q24i/h+AzbnK
fYaWc+Is+XI34mVoWNYa1IfniC/K03NQs5+9TF79gvg+IkRivRcF8EYruhIUFLjU
zJoy6Q2H+fNDr9+zpyhGLr/6V/HIFx05Nf3EqVrHOmzvJImqwsx+Xcgf6WO3GDwC
8tr82HuVD8JCiQX1+YmQdIOBbIUI6vA/looqtyuo2xkkwCeXGyyA1Cy19oLN64hk
6RetO7AYrVJti1S1rYJV3m/mgueppiim0rq+iN19QgoaRGI0uOVvErGKHhS3PVuc
u8k4yO+7iy4fsaqbQM5beLxZptceavnndj0LZ+takdcUkZwl3RL5CajM6lkk3YhG
y4i5a6lfuTokZ7uSVwwXNLOWWpmpsq9NuPteDOgefwvM
-----END CERTIFICATE-----
