Certificate:
    Data:
        Version: 3 (0x2)
        Serial Number:
            2c:81:df:e9:37:05:9a:b1:3c:22:24:64:83:6c:64:b1
    Signature Algorithm: sha256WithRSAEncryption
        Issuer: CN=Root CA, O=Development VM, C=NL
        Validity
            Not Before: Sep  1 10:17:04 2020 GMT
            Not After : Sep  1 10:17:04 2023 GMT
        Subject: C=NL, O=Development VM, CN=gateway.stepup.example.com
        Subject Public Key Info:
            Public Key Algorithm: rsaEncryption
                Public-Key: (2048 bit)
                Modulus:
                    00:c3:2c:59:69:cd:d6:19:56:d3:cd:9f:bc:0e:dd:
                    c8:44:30:84:ac:69:90:7a:16:90:93:cb:e1:d0:76:
                    18:e7:4c:b0:de:a3:a4:21:34:d3:17:57:7d:a8:77:
                    82:35:e4:bb:2a:a4:80:c3:0c:97:08:9f:7c:67:3b:
                    a2:10:f6:5f:05:bd:44:64:b8:c6:8a:da:7b:a6:05:
                    79:35:32:4a:04:5e:96:04:fc:7f:b8:90:48:72:6a:
                    1d:51:bd:de:4d:7d:bf:01:a4:dc:ed:7e:cc:a3:10:
                    97:4c:9d:d3:d6:f7:4d:ef:37:13:d4:eb:a1:8f:df:
                    46:1e:40:f2:5a:05:05:6d:80:22:94:ce:d4:b5:ad:
                    07:33:1e:4a:7f:1d:5d:42:fd:74:89:f0:75:fd:9d:
                    44:74:79:09:15:8c:20:61:c8:b1:93:16:c2:52:ca:
                    d5:14:0a:04:ed:1c:92:4f:e0:4e:29:2a:de:04:1e:
                    31:3c:bd:5d:07:31:8d:c2:ce:74:cc:d0:81:ad:53:
                    ba:40:cc:54:02:d1:74:73:5d:c2:e0:39:62:3f:75:
                    d7:83:02:d3:13:2a:66:02:77:fe:e0:5a:9b:1e:a9:
                    4a:00:3f:64:5a:5f:34:6e:c8:e0:d1:d0:41:99:af:
                    b0:af:17:cf:e7:c1:39:17:b9:9b:b6:10:0c:38:51:
                    2d:af
                Exponent: 65537 (0x10001)
        X509v3 extensions:
            X509v3 Subject Key Identifier: 
                CB:3F:B7:05:37:6D:81:71:90:E4:DD:87:D2:07:D3:E1:24:5C:36:E1
            X509v3 Authority Key Identifier: 
                keyid:44:C4:94:1D:E3:D6:19:D9:72:CA:A8:56:A5:E7:9D:6E:3E:EE:42:87
                DirName:/CN=Root CA/O=Development VM/C=NL
                serial:00

            X509v3 Basic Constraints: critical
                CA:FALSE, pathlen:0
            X509v3 Key Usage: critical
                Digital Signature, Key Encipherment
            X509v3 Extended Key Usage: critical
                TLS Web Server Authentication
    Signature Algorithm: sha256WithRSAEncryption
         b9:a7:ab:72:f7:31:cf:08:f2:21:c2:36:76:94:bc:17:02:8d:
         71:a0:e3:1e:f5:d4:cd:db:8b:c8:aa:c2:47:0f:4e:a7:67:23:
         cd:bf:16:57:e1:40:30:df:25:0b:1d:e0:7d:fd:fd:75:14:e7:
         81:63:28:0f:f4:4a:5b:23:87:a8:6e:02:32:e6:f4:44:81:9f:
         f3:7c:93:20:b3:d2:70:53:eb:a6:96:fc:4f:37:a4:38:cc:af:
         74:e4:2c:d7:70:31:74:17:7e:5b:e9:9e:5d:c8:e3:1d:a8:66:
         a4:5a:76:79:b1:5b:54:33:5a:1f:31:e1:9c:df:80:85:c8:34:
         5f:e8:81:94:73:f8:e5:f9:43:e7:a6:26:26:ff:af:b6:e3:1c:
         cd:4e:9c:c1:2e:43:6a:74:ba:e3:61:8e:10:41:91:6d:64:46:
         49:0a:fa:06:3e:74:25:85:c3:02:11:b9:74:fc:a7:25:87:10:
         25:57:14:13:eb:85:20:7f:5e:b3:6d:5d:9d:41:93:12:f6:92:
         03:27:11:53:23:6e:05:cb:f7:98:52:06:6b:51:c7:46:58:6e:
         d4:40:01:a8:37:92:68:42:2f:74:33:d9:10:97:06:9a:81:65:
         40:19:7a:64:58:3e:05:7b:47:ad:2d:43:98:43:6b:12:cb:00:
         c7:21:59:6e:a6:de:e2:eb:65:64:79:74:54:f8:5e:7b:e6:96:
         cc:a4:4c:55:33:2d:71:dd:1f:10:ae:b8:3d:f3:59:ac:ac:b8:
         06:05:33:90:54:bf:55:3f:24:a6:da:0e:dd:e9:56:97:3e:d3:
         ea:f8:ca:75:80:c4:e4:93:e6:ef:7c:cc:c2:ff:14:68:c9:9d:
         75:85:a7:c3:67:02:d0:eb:fc:0a:da:db:56:f0:a1:98:81:05:
         3d:12:f0:c2:27:6d:a0:68:6f:9e:12:7a:b2:7d:b2:17:39:e9:
         f3:00:e0:4c:15:8e:2c:44:65:5e:bf:9b:bc:4a:4a:92:38:7c:
         f8:b3:a2:c4:57:39:48:aa:55:23:a4:62:61:7d:1c:39:66:07:
         ad:57:a4:1f:a7:af:9b:fb:9d:1d:ab:3a:50:cb:3d:10:62:b3:
         6e:01:42:31:0d:45:f7:48:d1:fa:02:86:ee:a1:87:0d:9a:d1:
         c7:fe:20:f6:28:23:d3:da:26:c9:4c:fc:c6:b3:4c:78:e4:fa:
         11:3c:b0:c7:72:18:77:f1:0b:07:6c:4d:0f:ce:ae:1d:80:c8:
         8b:f2:1d:72:88:4e:b7:5c:82:7f:79:d8:0d:52:89:69:48:36:
         66:96:28:b2:65:c9:49:fd:77:9b:91:b3:68:8d:b4:8c:bf:ce:
         48:1a:31:ff:35:56:e0:26
-----BEGIN CERTIFICATE-----
MIIEyzCCArOgAwIBAgIQLIHf6TcFmrE8IiRkg2xksTANBgkqhkiG9w0BAQsFADA4
MRAwDgYDVQQDDAdSb290IENBMRcwFQYDVQQKDA5EZXZlbG9wbWVudCBWTTELMAkG
A1UEBhMCTkwwHhcNMjAwOTAxMTAxNzA0WhcNMjMwOTAxMTAxNzA0WjBLMQswCQYD
VQQGEwJOTDEXMBUGA1UECgwORGV2ZWxvcG1lbnQgVk0xIzAhBgNVBAMMGmdhdGV3
YXkuc3RlcHVwLmV4YW1wbGUuY29tMIIBIjANBgkqhkiG9w0BAQEFAAOCAQ8AMIIB
CgKCAQEAwyxZac3WGVbTzZ+8Dt3IRDCErGmQehaQk8vh0HYY50yw3qOkITTTF1d9
qHeCNeS7KqSAwwyXCJ98ZzuiEPZfBb1EZLjGitp7pgV5NTJKBF6WBPx/uJBIcmod
Ub3eTX2/AaTc7X7MoxCXTJ3T1vdN7zcT1Ouhj99GHkDyWgUFbYAilM7Uta0HMx5K
fx1dQv10ifB1/Z1EdHkJFYwgYcixkxbCUsrVFAoE7RyST+BOKSreBB4xPL1dBzGN
ws50zNCBrVO6QMxUAtF0c13C4DliP3XXgwLTEypmAnf+4FqbHqlKAD9kWl80bsjg
0dBBma+wrxfP58E5F7mbthAMOFEtrwIDAQABo4G9MIG6MB0GA1UdDgQWBBTLP7cF
N22BcZDk3YfSB9PhJFw24TBgBgNVHSMEWTBXgBRExJQd49YZ2XLKqFal551uPu5C
h6E8pDowODEQMA4GA1UEAwwHUm9vdCBDQTEXMBUGA1UECgwORGV2ZWxvcG1lbnQg
Vk0xCzAJBgNVBAYTAk5MggEAMA8GA1UdEwEB/wQFMAMCAQAwDgYDVR0PAQH/BAQD
AgWgMBYGA1UdJQEB/wQMMAoGCCsGAQUFBwMBMA0GCSqGSIb3DQEBCwUAA4ICAQC5
p6ty9zHPCPIhwjZ2lLwXAo1xoOMe9dTN24vIqsJHD06nZyPNvxZX4UAw3yULHeB9
/f11FOeBYygP9EpbI4eobgIy5vREgZ/zfJMgs9JwU+umlvxPN6Q4zK905CzXcDF0
F35b6Z5dyOMdqGakWnZ5sVtUM1ofMeGc34CFyDRf6IGUc/jl+UPnpiYm/6+24xzN
TpzBLkNqdLrjYY4QQZFtZEZJCvoGPnQlhcMCEbl0/KclhxAlVxQT64Ugf16zbV2d
QZMS9pIDJxFTI24Fy/eYUgZrUcdGWG7UQAGoN5JoQi90M9kQlwaagWVAGXpkWD4F
e0etLUOYQ2sSywDHIVlupt7i62VkeXRU+F575pbMpExVMy1x3R8Qrrg981msrLgG
BTOQVL9VPySm2g7d6VaXPtPq+Mp1gMTkk+bvfMzC/xRoyZ11hafDZwLQ6/wK2ttW
8KGYgQU9EvDCJ22gaG+eEnqyfbIXOenzAOBMFY4sRGVev5u8SkqSOHz4s6LEVzlI
qlUjpGJhfRw5ZgetV6Qfp6+b+50dqzpQyz0QYrNuAUIxDUX3SNH6AobuoYcNmtHH
/iD2KCPT2ibJTPzGs0x45PoRPLDHchh38QsHbE0Pzq4dgMiL8h1yiE63XIJ/edgN
UolpSDZmliiyZclJ/XebkbNojbSMv85IGjH/NVbgJg==
-----END CERTIFICATE-----
