Certificate:
    Data:
        Version: 3 (0x2)
        Serial Number:
            2c:81:df:e9:37:05:9a:b1:3c:22:24:64:83:6c:64:b6
    Signature Algorithm: sha256WithRSAEncryption
        Issuer: CN=Root CA, O=Development VM, C=NL
        Validity
            Not Before: Sep  1 10:17:05 2020 GMT
            Not After : Sep  1 10:17:05 2023 GMT
        Subject: C=NL, O=Development VM, CN=tiqr.stepup.example.com
        Subject Public Key Info:
            Public Key Algorithm: rsaEncryption
                Public-Key: (2048 bit)
                Modulus:
                    00:c9:b7:30:10:73:04:48:3f:16:8d:93:0d:18:e9:
                    d4:c3:23:45:73:6c:f3:1b:96:90:2a:09:88:55:86:
                    c7:a5:22:ff:fc:54:37:c6:14:3f:ab:df:69:d5:34:
                    22:6c:1c:97:09:6d:c5:e1:66:0b:ac:95:1b:a9:5c:
                    c3:c6:e3:fd:40:23:ac:08:9c:b7:e5:94:16:f3:13:
                    39:73:2e:20:d1:b7:ae:6e:c1:5b:df:61:17:4e:b7:
                    7c:43:8f:e7:4a:6e:0c:68:c4:1b:65:a5:ee:5b:26:
                    ee:ff:e0:c9:04:70:15:75:19:4a:a9:7d:38:b8:f4:
                    e6:ff:99:e0:69:75:0d:37:cb:0a:ac:a9:3a:ba:f0:
                    68:dc:1e:8e:be:6c:57:51:7a:12:09:75:9b:93:e6:
                    25:92:62:59:ac:8a:f5:6d:ef:26:e3:e2:7b:b6:67:
                    dc:11:21:6f:1a:a5:15:fe:07:24:42:4b:f1:a3:fd:
                    76:8a:c7:f3:69:6c:40:3b:46:3d:f2:e2:62:7d:cc:
                    97:73:b7:3e:36:45:5b:f8:b9:f9:d5:31:f6:24:71:
                    35:42:c3:40:a7:80:91:c7:17:58:20:9c:0c:1d:0d:
                    99:34:82:33:a6:40:ce:e6:ae:30:7e:1e:88:de:89:
                    97:9e:75:ed:80:d7:84:be:d5:e1:35:90:97:c3:0a:
                    5e:53
                Exponent: 65537 (0x10001)
        X509v3 extensions:
            X509v3 Subject Key Identifier: 
                4C:52:52:3A:EF:C3:0F:0E:29:9E:F3:14:BF:1F:79:41:9F:87:F3:6A
            X509v3 Authority Key Identifier: 
                keyid:44:C4:94:1D:E3:D6:19:D9:72:CA:A8:56:A5:E7:9D:6E:3E:EE:42:87
                DirName:/CN=Root CA/O=Development VM/C=NL
                serial:00

            X509v3 Basic Constraints: critical
                CA:FALSE, pathlen:0
            X509v3 Key Usage: critical
                Digital Signature, Key Encipherment
            X509v3 Extended Key Usage: critical
                TLS Web Server Authentication
    Signature Algorithm: sha256WithRSAEncryption
         b0:65:8b:82:32:f3:3d:fe:1c:42:ef:d8:e8:69:6f:22:ed:69:
         7c:f6:c9:f8:fa:3f:e1:ca:34:9d:d3:b6:c7:ee:c1:8f:f3:e6:
         3b:d8:f9:29:5f:54:08:71:0b:5b:37:22:7c:df:bc:23:91:1d:
         f0:22:95:a7:5b:9a:dc:4a:a4:f5:ef:b6:18:a8:e9:24:26:d0:
         63:b8:4a:84:3e:a3:8b:77:1e:49:a7:d9:48:bb:cf:a6:f1:77:
         d0:ea:bf:87:63:13:4c:af:3d:6c:26:31:c6:d8:a4:ce:07:69:
         f8:1d:1b:fa:fe:52:56:0f:43:3a:9f:ec:12:28:dd:d0:f1:24:
         8d:2f:50:07:f3:c8:1f:a4:65:13:76:e5:e3:11:ec:df:e6:29:
         25:73:1c:5b:89:d0:62:d0:6c:b4:ae:d6:a5:74:18:28:46:16:
         65:de:3f:7f:1b:d2:b3:e8:ee:ee:74:4d:eb:af:05:01:cb:b3:
         6f:62:57:e0:a7:d3:31:6d:a2:08:c4:d5:4a:9b:51:3d:db:a1:
         80:b6:00:a1:07:64:96:42:ca:d7:a0:5e:74:04:c4:2f:d5:6e:
         70:73:0e:0b:c6:52:9e:8e:b2:c7:a2:e4:e1:54:c0:9a:42:44:
         4f:2b:64:47:d2:9f:0e:d1:8d:b5:41:2c:3f:8f:64:bf:2d:a7:
         73:bd:e0:3c:6f:26:c8:c8:2a:0f:9a:6e:8b:86:2b:1c:54:a4:
         41:7b:5f:60:06:4d:69:3b:bc:25:1b:5d:49:94:66:88:0a:e8:
         87:e0:f9:e1:6b:f5:70:f1:c5:0d:f4:e1:ff:45:a4:9a:75:0a:
         07:e6:0f:e6:53:64:17:e1:30:1c:4e:1b:02:d1:f2:77:46:c1:
         93:fb:66:84:4e:61:e8:b7:f8:7c:10:fd:86:68:10:b4:ba:49:
         94:4f:8a:e7:2c:60:5a:97:88:65:64:85:f9:e9:13:0e:32:05:
         d9:9d:02:1e:c7:86:1d:ae:b1:e8:ca:fb:be:73:a2:32:67:aa:
         6b:a3:09:17:70:9d:21:25:18:8e:4a:6b:b6:0d:0f:bb:53:cc:
         74:a9:c6:03:62:9b:6a:4b:0b:09:5c:2c:f1:b3:cc:9f:eb:e0:
         5c:77:90:c6:6a:f5:4c:87:94:80:c1:49:95:0f:5a:93:b0:d9:
         64:35:5d:65:06:c2:f2:27:43:3b:e4:6e:bb:5b:eb:47:bb:d5:
         32:7a:d0:82:0a:49:27:b3:a8:f7:4f:cd:c1:62:7d:82:e4:9a:
         f2:b2:53:0d:43:df:63:51:f6:ed:97:90:c0:72:d6:54:31:55:
         d0:37:9a:20:7f:02:99:96:19:e0:a5:7c:4e:89:9d:6e:ef:b2:
         71:e2:36:8e:a4:83:9a:f9
-----BEGIN CERTIFICATE-----
MIIEyDCCArCgAwIBAgIQLIHf6TcFmrE8IiRkg2xktjANBgkqhkiG9w0BAQsFADA4
MRAwDgYDVQQDDAdSb290IENBMRcwFQYDVQQKDA5EZXZlbG9wbWVudCBWTTELMAkG
A1UEBhMCTkwwHhcNMjAwOTAxMTAxNzA1WhcNMjMwOTAxMTAxNzA1WjBIMQswCQYD
VQQGEwJOTDEXMBUGA1UECgwORGV2ZWxvcG1lbnQgVk0xIDAeBgNVBAMMF3RpcXIu
c3RlcHVwLmV4YW1wbGUuY29tMIIBIjANBgkqhkiG9w0BAQEFAAOCAQ8AMIIBCgKC
AQEAybcwEHMESD8WjZMNGOnUwyNFc2zzG5aQKgmIVYbHpSL//FQ3xhQ/q99p1TQi
bByXCW3F4WYLrJUbqVzDxuP9QCOsCJy35ZQW8xM5cy4g0beubsFb32EXTrd8Q4/n
Sm4MaMQbZaXuWybu/+DJBHAVdRlKqX04uPTm/5ngaXUNN8sKrKk6uvBo3B6OvmxX
UXoSCXWbk+YlkmJZrIr1be8m4+J7tmfcESFvGqUV/gckQkvxo/12isfzaWxAO0Y9
8uJifcyXc7c+NkVb+Ln51TH2JHE1QsNAp4CRxxdYIJwMHQ2ZNIIzpkDO5q4wfh6I
3omXnnXtgNeEvtXhNZCXwwpeUwIDAQABo4G9MIG6MB0GA1UdDgQWBBRMUlI678MP
Dime8xS/H3lBn4fzajBgBgNVHSMEWTBXgBRExJQd49YZ2XLKqFal551uPu5Ch6E8
pDowODEQMA4GA1UEAwwHUm9vdCBDQTEXMBUGA1UECgwORGV2ZWxvcG1lbnQgVk0x
CzAJBgNVBAYTAk5MggEAMA8GA1UdEwEB/wQFMAMCAQAwDgYDVR0PAQH/BAQDAgWg
MBYGA1UdJQEB/wQMMAoGCCsGAQUFBwMBMA0GCSqGSIb3DQEBCwUAA4ICAQCwZYuC
MvM9/hxC79joaW8i7Wl89sn4+j/hyjSd07bH7sGP8+Y72PkpX1QIcQtbNyJ837wj
kR3wIpWnW5rcSqT177YYqOkkJtBjuEqEPqOLdx5Jp9lIu8+m8XfQ6r+HYxNMrz1s
JjHG2KTOB2n4HRv6/lJWD0M6n+wSKN3Q8SSNL1AH88gfpGUTduXjEezf5iklcxxb
idBi0Gy0rtaldBgoRhZl3j9/G9Kz6O7udE3rrwUBy7NvYlfgp9MxbaIIxNVKm1E9
26GAtgChB2SWQsrXoF50BMQv1W5wcw4LxlKejrLHouThVMCaQkRPK2RH0p8O0Y21
QSw/j2S/LadzveA8bybIyCoPmm6LhiscVKRBe19gBk1pO7wlG11JlGaICuiH4Pnh
a/Vw8cUN9OH/RaSadQoH5g/mU2QX4TAcThsC0fJ3RsGT+2aETmHot/h8EP2GaBC0
ukmUT4rnLGBal4hlZIX56RMOMgXZnQIex4YdrrHoyvu+c6IyZ6prowkXcJ0hJRiO
Smu2DQ+7U8x0qcYDYptqSwsJXCzxs8yf6+Bcd5DGavVMh5SAwUmVD1qTsNlkNV1l
BsLyJ0M75G67W+tHu9UyetCCCkkns6j3T83BYn2C5JryslMNQ99jUfbtl5DActZU
MVXQN5ogfwKZlhngpXxOiZ1u77Jx4jaOpIOa+Q==
-----END CERTIFICATE-----
