Certificate:
    Data:
        Version: 3 (0x2)
        Serial Number:
            2c:81:df:e9:37:05:9a:b1:3c:22:24:64:83:6c:64:b7
    Signature Algorithm: sha256WithRSAEncryption
        Issuer: CN=Root CA, O=Development VM, C=NL
        Validity
            Not Before: Sep  1 10:17:05 2020 GMT
            Not After : Sep  1 10:17:05 2023 GMT
        Subject: C=NL, O=Development VM, CN=webauthn.stepup.example.com
        Subject Public Key Info:
            Public Key Algorithm: rsaEncryption
                Public-Key: (2048 bit)
                Modulus:
                    00:b3:d7:71:a7:9d:7e:5e:d2:fb:c9:04:6c:d6:5a:
                    c7:25:4b:18:c3:59:16:58:e4:0a:31:cc:cb:81:68:
                    d8:01:c2:b6:14:d6:96:7f:fd:17:53:4f:e4:ac:75:
                    b5:65:2c:6a:b2:8f:4e:a3:15:1e:c8:c2:5c:11:ae:
                    ad:94:28:30:0d:db:f5:7b:5d:2b:b4:6c:d5:ba:66:
                    30:db:25:1d:6c:5c:33:47:3a:ae:4b:21:09:17:66:
                    ce:56:5d:e4:44:08:01:f6:80:8a:ca:21:ae:db:4f:
                    40:a7:cb:9e:5f:08:b8:47:92:27:a7:c8:16:d5:94:
                    4b:71:db:c1:eb:7b:e4:d3:ea:cf:a6:97:73:02:86:
                    31:50:d0:19:5c:6b:9d:ea:f3:b1:71:87:15:fa:c7:
                    96:c5:03:32:1e:50:63:16:9f:b8:99:e9:9c:e5:e6:
                    d6:51:c1:3a:3e:50:7c:4c:29:6b:44:47:31:88:80:
                    3e:27:44:3c:5a:c8:23:72:e9:b0:95:3c:02:03:41:
                    95:fa:d5:0b:30:60:bb:ff:9b:bd:ea:30:58:8c:73:
                    d0:02:84:45:96:49:af:da:18:c4:c4:1a:95:98:93:
                    fc:b7:fe:26:b6:5b:b1:0f:e0:2d:c6:52:d1:ec:f4:
                    46:61:aa:34:94:3d:c2:73:fd:12:11:31:69:05:0f:
                    38:cb
                Exponent: 65537 (0x10001)
        X509v3 extensions:
            X509v3 Subject Key Identifier: 
                D8:93:DB:1A:B8:C6:A4:CC:2B:DC:EE:4C:EA:62:EE:6C:32:87:37:5D
            X509v3 Authority Key Identifier: 
                keyid:44:C4:94:1D:E3:D6:19:D9:72:CA:A8:56:A5:E7:9D:6E:3E:EE:42:87
                DirName:/CN=Root CA/O=Development VM/C=NL
                serial:00

            X509v3 Basic Constraints: critical
                CA:FALSE, pathlen:0
            X509v3 Key Usage: critical
                Digital Signature, Key Encipherment
            X509v3 Extended Key Usage: critical
                TLS Web Server Authentication
    Signature Algorithm: sha256WithRSAEncryption
         22:03:5e:f1:86:83:11:bd:c9:6d:3c:e7:75:f5:80:e4:2d:34:
         2f:8a:30:6e:71:ec:db:d0:1f:93:c7:98:be:a4:ad:12:0a:89:
         8b:d9:4a:e2:86:38:c6:39:b3:e4:8d:64:4c:c0:6d:b6:5f:18:
         fb:50:3f:91:12:9c:99:46:00:ae:ba:cd:5f:48:01:21:a0:49:
         2d:a1:49:1e:ea:94:1a:3e:b1:d9:89:58:72:b9:32:14:39:2e:
         89:f5:26:1d:1a:83:7b:27:01:ac:89:bd:b0:56:7d:6b:5d:31:
         79:1e:9f:1b:8c:e8:87:db:b8:2a:3e:7d:25:1c:61:94:b9:66:
         0c:a4:87:27:98:c7:da:31:0e:a1:bc:19:e8:2d:ba:a5:5d:c6:
         04:81:88:d5:c4:50:90:c9:21:27:01:7d:02:3f:df:5a:bb:db:
         45:83:e3:5e:59:d7:06:e6:33:7d:9e:5d:57:ad:59:f2:f9:9b:
         88:77:9f:25:d4:02:18:49:d5:35:2b:ab:18:ce:5a:69:7f:8b:
         00:19:5f:20:31:0b:2f:a0:b2:97:0c:63:76:3a:05:17:cf:88:
         f0:eb:15:9c:03:2e:85:8f:de:dc:3b:7a:8d:e8:e3:ab:8d:38:
         0d:b4:8d:7a:f5:7f:e6:42:b1:12:e1:04:74:85:18:98:86:38:
         a0:a0:4e:aa:00:cc:32:00:27:57:88:4e:c4:c9:c0:d2:0e:de:
         97:ac:9f:fa:8a:aa:87:6e:50:5c:0f:47:32:85:44:ab:27:bb:
         e5:7e:bb:e1:1d:fb:ca:10:70:84:01:2d:05:75:c7:6c:2d:75:
         fa:d0:48:7c:a9:5c:6f:1e:fb:3d:04:cc:b4:4f:85:5a:ae:fe:
         4d:8e:14:5e:f4:53:c2:6c:c6:42:87:1f:ce:ec:ed:82:ce:39:
         31:3f:88:8c:d1:1e:18:42:5c:5b:67:95:2a:b6:1d:23:c8:3a:
         1c:dc:ee:c3:ca:be:38:57:dd:d5:f9:8f:3a:01:d3:53:ce:d5:
         b8:af:08:de:d6:d9:5f:a8:2e:b7:71:9a:a9:38:ad:80:a4:5e:
         ce:fc:63:85:7b:1f:02:38:97:19:e6:c2:df:da:80:4d:a4:05:
         c6:7e:b0:02:9a:1a:24:df:fe:41:f9:25:d2:4f:57:e7:95:f3:
         ec:6c:2e:4e:27:45:db:40:91:33:b7:50:32:ad:b1:05:75:29:
         62:8a:9b:5f:60:a9:6f:6b:ca:b5:56:3e:43:69:b6:1b:ee:a8:
         53:05:84:15:cc:3d:f9:aa:60:f8:e3:92:81:49:18:82:60:99:
         c8:8f:e9:f9:b1:e5:05:99:50:ba:6f:68:52:bf:1a:46:cb:b2:
         38:26:77:d8:df:5c:14:7c
-----BEGIN CERTIFICATE-----
MIIEzDCCArSgAwIBAgIQLIHf6TcFmrE8IiRkg2xktzANBgkqhkiG9w0BAQsFADA4
MRAwDgYDVQQDDAdSb290IENBMRcwFQYDVQQKDA5EZXZlbG9wbWVudCBWTTELMAkG
A1UEBhMCTkwwHhcNMjAwOTAxMTAxNzA1WhcNMjMwOTAxMTAxNzA1WjBMMQswCQYD
VQQGEwJOTDEXMBUGA1UECgwORGV2ZWxvcG1lbnQgVk0xJDAiBgNVBAMMG3dlYmF1
dGhuLnN0ZXB1cC5leGFtcGxlLmNvbTCCASIwDQYJKoZIhvcNAQEBBQADggEPADCC
AQoCggEBALPXcaedfl7S+8kEbNZaxyVLGMNZFljkCjHMy4Fo2AHCthTWln/9F1NP
5Kx1tWUsarKPTqMVHsjCXBGurZQoMA3b9XtdK7Rs1bpmMNslHWxcM0c6rkshCRdm
zlZd5EQIAfaAisohrttPQKfLnl8IuEeSJ6fIFtWUS3Hbwet75NPqz6aXcwKGMVDQ
GVxrnerzsXGHFfrHlsUDMh5QYxafuJnpnOXm1lHBOj5QfEwpa0RHMYiAPidEPFrI
I3LpsJU8AgNBlfrVCzBgu/+bveowWIxz0AKERZZJr9oYxMQalZiT/Lf+JrZbsQ/g
LcZS0ez0RmGqNJQ9wnP9EhExaQUPOMsCAwEAAaOBvTCBujAdBgNVHQ4EFgQU2JPb
GrjGpMwr3O5M6mLubDKHN10wYAYDVR0jBFkwV4AURMSUHePWGdlyyqhWpeedbj7u
QoehPKQ6MDgxEDAOBgNVBAMMB1Jvb3QgQ0ExFzAVBgNVBAoMDkRldmVsb3BtZW50
IFZNMQswCQYDVQQGEwJOTIIBADAPBgNVHRMBAf8EBTADAgEAMA4GA1UdDwEB/wQE
AwIFoDAWBgNVHSUBAf8EDDAKBggrBgEFBQcDATANBgkqhkiG9w0BAQsFAAOCAgEA
IgNe8YaDEb3JbTzndfWA5C00L4owbnHs29Afk8eYvqStEgqJi9lK4oY4xjmz5I1k
TMBttl8Y+1A/kRKcmUYArrrNX0gBIaBJLaFJHuqUGj6x2YlYcrkyFDkuifUmHRqD
eycBrIm9sFZ9a10xeR6fG4zoh9u4Kj59JRxhlLlmDKSHJ5jH2jEOobwZ6C26pV3G
BIGI1cRQkMkhJwF9Aj/fWrvbRYPjXlnXBuYzfZ5dV61Z8vmbiHefJdQCGEnVNSur
GM5aaX+LABlfIDELL6CylwxjdjoFF8+I8OsVnAMuhY/e3Dt6jejjq404DbSNevV/
5kKxEuEEdIUYmIY4oKBOqgDMMgAnV4hOxMnA0g7el6yf+oqqh25QXA9HMoVEqye7
5X674R37yhBwhAEtBXXHbC11+tBIfKlcbx77PQTMtE+FWq7+TY4UXvRTwmzGQocf
zuztgs45MT+IjNEeGEJcW2eVKrYdI8g6HNzuw8q+OFfd1fmPOgHTU87VuK8I3tbZ
X6gut3GaqTitgKRezvxjhXsfAjiXGebC39qATaQFxn6wApoaJN/+Qfkl0k9X55Xz
7GwuTidF20CRM7dQMq2xBXUpYoqbX2Cpb2vKtVY+Q2m2G+6oUwWEFcw9+apg+OOS
gUkYgmCZyI/p+bHlBZlQum9oUr8aRsuyOCZ32N9cFHw=
-----END CERTIFICATE-----
