Certificate:
    Data:
        Version: 3 (0x2)
        Serial Number:
            2c:81:df:e9:37:05:9a:b1:3c:22:24:64:83:6c:64:b2
    Signature Algorithm: sha256WithRSAEncryption
        Issuer: CN=Root CA, O=Development VM, C=NL
        Validity
            Not Before: Sep  1 10:17:05 2020 GMT
            Not After : Sep  1 10:17:05 2023 GMT
        Subject: C=NL, O=Development VM, CN=ra.stepup.example.com
        Subject Public Key Info:
            Public Key Algorithm: rsaEncryption
                Public-Key: (2048 bit)
                Modulus:
                    00:d8:2b:ed:44:a6:f6:7a:ca:10:e7:00:36:d0:14:
                    24:ff:00:9e:b7:a3:e3:49:6f:77:46:dc:a7:0e:5c:
                    af:81:b8:13:c6:3a:e9:33:a8:08:21:40:01:74:42:
                    47:59:74:17:7a:4e:86:2e:e4:4e:41:d8:9c:36:70:
                    1c:a1:f6:da:87:c9:de:22:d6:29:e6:aa:64:2a:96:
                    9f:5f:60:1b:aa:3f:89:85:86:11:44:90:9a:79:b1:
                    66:eb:dc:1b:87:da:89:ae:61:1d:62:89:b3:c1:65:
                    2b:ce:54:31:d4:45:cd:60:6a:cb:57:ed:45:a9:35:
                    d6:88:a0:dd:d0:f4:cd:10:c6:f8:5e:72:cb:08:bb:
                    a5:b0:c0:55:29:f6:76:97:23:d2:08:08:7a:e6:55:
                    2a:97:43:5d:6a:ae:1c:93:c2:4c:e9:e4:8c:58:d6:
                    9b:9f:2d:4a:6c:4b:4a:84:19:96:26:a1:13:0a:9d:
                    aa:c7:0f:8d:86:ee:a7:43:26:09:47:6c:c7:63:4c:
                    1a:d2:90:d0:d9:7a:41:7e:c3:00:6c:bb:b1:9f:de:
                    f6:8c:f4:a9:79:96:69:69:57:29:a3:76:f5:c9:63:
                    61:4f:47:54:70:e7:30:6d:d4:1a:8c:26:8c:83:90:
                    e5:1a:48:8a:84:10:b1:2e:76:af:59:a0:98:61:af:
                    c0:f3
                Exponent: 65537 (0x10001)
        X509v3 extensions:
            X509v3 Subject Key Identifier: 
                5E:F9:47:3B:EC:03:6E:6F:9E:4C:66:0D:FE:14:DB:B4:C0:C2:BE:3F
            X509v3 Authority Key Identifier: 
                keyid:44:C4:94:1D:E3:D6:19:D9:72:CA:A8:56:A5:E7:9D:6E:3E:EE:42:87
                DirName:/CN=Root CA/O=Development VM/C=NL
                serial:00

            X509v3 Basic Constraints: critical
                CA:FALSE, pathlen:0
            X509v3 Key Usage: critical
                Digital Signature, Key Encipherment
            X509v3 Extended Key Usage: critical
                TLS Web Server Authentication
    Signature Algorithm: sha256WithRSAEncryption
         a2:60:2f:52:69:2e:0a:a2:96:ac:95:7e:bf:22:ae:93:34:c3:
         71:b8:93:7a:b2:7a:64:41:48:a1:af:1a:3f:f1:c5:2a:a5:78:
         a9:6d:80:d4:d9:d3:3f:40:57:8c:65:da:a3:19:29:7e:d7:20:
         60:41:09:d1:e9:ab:28:34:01:40:e1:f4:f6:97:0b:62:63:30:
         d5:cf:90:11:2e:99:b5:19:dd:35:c7:02:3c:0e:2e:cf:61:c9:
         da:57:88:78:40:1d:4a:07:b9:1e:98:08:0c:40:e6:f6:b3:b0:
         c2:47:c7:7a:32:56:0d:42:bd:56:1d:08:a5:53:87:61:40:da:
         39:77:1b:3d:84:c0:ee:2e:cf:3d:d2:4f:3d:56:7e:67:de:4a:
         47:53:08:89:8c:eb:e2:90:82:12:f9:ce:07:85:3a:4f:28:67:
         90:06:e0:bf:0d:bd:b4:4e:2a:1c:30:25:f3:e8:fb:13:08:2f:
         18:68:df:cd:6f:0a:da:11:cb:22:fe:85:5f:4c:93:0b:bd:b4:
         04:e8:66:8a:fb:97:24:20:52:7d:1d:44:49:1d:01:fb:cc:df:
         b7:7d:cb:74:b9:d3:bf:97:35:75:9b:4a:1a:60:26:eb:04:cc:
         ac:f6:79:cf:98:02:2b:68:5f:86:6e:b1:de:2d:47:81:36:61:
         96:9b:6d:6f:7a:83:2c:ff:e9:2b:92:be:77:9b:63:1d:e3:32:
         c8:3e:9d:b3:a6:85:18:a3:f6:a5:12:fc:bc:9c:22:ec:76:75:
         c8:a1:2e:04:04:59:e8:50:e6:ec:b7:a4:5d:d9:32:13:e1:f6:
         e2:57:97:9f:55:d9:10:9f:aa:93:2d:db:1c:44:3b:0f:aa:eb:
         70:75:7f:2a:34:a2:e5:0a:cc:0e:e2:3d:b5:db:88:06:f0:48:
         5c:f7:61:dc:78:3c:30:2a:d6:23:e4:28:fd:56:fe:4e:86:e8:
         94:ed:70:22:d8:6c:cc:17:44:1e:da:3b:22:68:6e:09:0b:47:
         dc:38:2e:7f:d8:4f:c2:c6:90:7e:ec:0a:8f:a4:5b:f8:67:28:
         96:49:21:14:81:01:86:09:5b:e8:21:06:38:12:0c:49:93:e8:
         bb:9c:b5:5b:5b:fa:ad:e6:d9:49:83:92:48:be:f7:04:f0:ef:
         b5:a4:a4:e5:0e:23:b7:46:57:40:3d:fd:76:e9:99:9d:78:6b:
         d2:b2:e9:a9:9f:5d:f9:d5:65:5b:2c:4f:87:82:81:d2:42:d0:
         b6:af:58:e7:1a:1b:ba:5f:9d:85:db:86:33:40:b0:35:d1:2f:
         cd:83:5c:20:e1:0a:35:e8:42:cd:50:32:51:21:7e:83:49:e8:
         58:6f:42:de:dc:10:5f:1e
-----BEGIN CERTIFICATE-----
MIIExjCCAq6gAwIBAgIQLIHf6TcFmrE8IiRkg2xksjANBgkqhkiG9w0BAQsFADA4
MRAwDgYDVQQDDAdSb290IENBMRcwFQYDVQQKDA5EZXZlbG9wbWVudCBWTTELMAkG
A1UEBhMCTkwwHhcNMjAwOTAxMTAxNzA1WhcNMjMwOTAxMTAxNzA1WjBGMQswCQYD
VQQGEwJOTDEXMBUGA1UECgwORGV2ZWxvcG1lbnQgVk0xHjAcBgNVBAMMFXJhLnN0
ZXB1cC5leGFtcGxlLmNvbTCCASIwDQYJKoZIhvcNAQEBBQADggEPADCCAQoCggEB
ANgr7USm9nrKEOcANtAUJP8Anrej40lvd0bcpw5cr4G4E8Y66TOoCCFAAXRCR1l0
F3pOhi7kTkHYnDZwHKH22ofJ3iLWKeaqZCqWn19gG6o/iYWGEUSQmnmxZuvcG4fa
ia5hHWKJs8FlK85UMdRFzWBqy1ftRak11oig3dD0zRDG+F5yywi7pbDAVSn2dpcj
0ggIeuZVKpdDXWquHJPCTOnkjFjWm58tSmxLSoQZliahEwqdqscPjYbup0MmCUds
x2NMGtKQ0Nl6QX7DAGy7sZ/e9oz0qXmWaWlXKaN29cljYU9HVHDnMG3UGowmjIOQ
5RpIioQQsS52r1mgmGGvwPMCAwEAAaOBvTCBujAdBgNVHQ4EFgQUXvlHO+wDbm+e
TGYN/hTbtMDCvj8wYAYDVR0jBFkwV4AURMSUHePWGdlyyqhWpeedbj7uQoehPKQ6
MDgxEDAOBgNVBAMMB1Jvb3QgQ0ExFzAVBgNVBAoMDkRldmVsb3BtZW50IFZNMQsw
CQYDVQQGEwJOTIIBADAPBgNVHRMBAf8EBTADAgEAMA4GA1UdDwEB/wQEAwIFoDAW
BgNVHSUBAf8EDDAKBggrBgEFBQcDATANBgkqhkiG9w0BAQsFAAOCAgEAomAvUmku
CqKWrJV+vyKukzTDcbiTerJ6ZEFIoa8aP/HFKqV4qW2A1NnTP0BXjGXaoxkpftcg
YEEJ0emrKDQBQOH09pcLYmMw1c+QES6ZtRndNccCPA4uz2HJ2leIeEAdSge5HpgI
DEDm9rOwwkfHejJWDUK9Vh0IpVOHYUDaOXcbPYTA7i7PPdJPPVZ+Z95KR1MIiYzr
4pCCEvnOB4U6TyhnkAbgvw29tE4qHDAl8+j7EwgvGGjfzW8K2hHLIv6FX0yTC720
BOhmivuXJCBSfR1ESR0B+8zft33LdLnTv5c1dZtKGmAm6wTMrPZ5z5gCK2hfhm6x
3i1HgTZhlpttb3qDLP/pK5K+d5tjHeMyyD6ds6aFGKP2pRL8vJwi7HZ1yKEuBARZ
6FDm7LekXdkyE+H24leXn1XZEJ+qky3bHEQ7D6rrcHV/KjSi5QrMDuI9tduIBvBI
XPdh3Hg8MCrWI+Qo/Vb+TobolO1wIthszBdEHto7ImhuCQtH3Dguf9hPwsaQfuwK
j6Rb+GcolkkhFIEBhglb6CEGOBIMSZPou5y1W1v6rebZSYOSSL73BPDvtaSk5Q4j
t0ZXQD39dumZnXhr0rLpqZ9d+dVlWyxPh4KB0kLQtq9Y5xobul+dhduGM0CwNdEv
zYNcIOEKNehCzVAyUSF+g0noWG9C3twQXx4=
-----END CERTIFICATE-----
