Certificate:
    Data:
        Version: 3 (0x2)
        Serial Number:
            2c:81:df:e9:37:05:9a:b1:3c:22:24:64:83:6c:64:ba
    Signature Algorithm: sha256WithRSAEncryption
        Issuer: CN=Root CA, O=Development VM, C=NL
        Validity
            Not Before: Sep  1 10:17:06 2020 GMT
            Not After : Sep  1 10:17:06 2023 GMT
        Subject: C=NL, O=Development VM, CN=demo-gssp.stepup.example.com
        Subject Public Key Info:
            Public Key Algorithm: rsaEncryption
                Public-Key: (2048 bit)
                Modulus:
                    00:c5:d0:8b:5a:2a:7d:eb:31:45:4a:2b:84:aa:5e:
                    6a:13:71:4a:ba:b8:7d:e5:e2:33:7e:25:15:cc:ed:
                    f5:3c:9b:c0:80:7f:52:98:4d:5c:02:2c:51:e2:7a:
                    36:01:5a:ac:e6:85:0f:12:91:08:10:dc:2f:83:d5:
                    f8:8e:75:77:a1:d7:16:8f:ba:bb:1e:f3:c1:2e:9f:
                    06:53:c7:22:fa:a5:64:e2:82:85:8b:ce:0b:35:4a:
                    48:44:6b:25:f9:42:dd:9f:b2:31:92:a1:0c:23:88:
                    8b:28:cf:89:65:1b:00:66:05:5c:38:b1:de:e3:b7:
                    d6:90:89:97:d6:d9:ad:f0:5c:2d:e3:34:7a:31:e1:
                    24:cf:56:27:32:3a:a1:f9:d2:0b:c5:da:55:ff:43:
                    d2:0b:cd:eb:66:f6:c7:88:76:6e:de:4b:a0:7a:cc:
                    bd:15:aa:3e:61:3d:a8:eb:dd:52:15:3d:2a:c3:46:
                    7b:7c:74:85:cd:7a:1a:8a:2e:a2:2b:96:eb:03:0a:
                    4a:aa:88:87:c7:5c:96:26:95:82:8f:3e:e0:74:2c:
                    ef:ac:ca:c3:11:02:b2:c0:28:85:ee:75:0f:1c:ac:
                    27:11:f9:a5:71:75:6d:1d:20:4e:bb:f3:aa:7e:e1:
                    09:e4:68:a2:9b:7d:3b:a0:29:fc:5f:dc:16:81:f6:
                    dd:49
                Exponent: 65537 (0x10001)
        X509v3 extensions:
            X509v3 Subject Key Identifier: 
                D1:74:E4:63:15:06:5E:AB:D2:4E:E9:3B:60:CE:D7:D4:7F:51:64:54
            X509v3 Authority Key Identifier: 
                keyid:44:C4:94:1D:E3:D6:19:D9:72:CA:A8:56:A5:E7:9D:6E:3E:EE:42:87
                DirName:/CN=Root CA/O=Development VM/C=NL
                serial:00

            X509v3 Basic Constraints: critical
                CA:FALSE, pathlen:0
            X509v3 Key Usage: critical
                Digital Signature, Key Encipherment
            X509v3 Extended Key Usage: critical
                TLS Web Server Authentication
    Signature Algorithm: sha256WithRSAEncryption
         64:72:8c:e7:e9:05:29:ff:51:11:6f:fe:61:4f:3c:2b:54:25:
         ee:21:19:94:c2:8f:08:0f:ef:16:10:84:9d:38:bd:95:37:2c:
         a0:bf:b5:c0:6e:21:d4:ff:1a:7c:48:35:2b:ed:f2:f7:44:03:
         20:a9:96:91:62:51:0c:e7:4f:9f:50:0d:59:62:a6:d8:5b:9c:
         2f:ac:44:65:10:c0:c3:5b:37:5a:e6:0e:74:cd:54:94:e3:28:
         08:10:61:e5:c7:d1:f6:45:3d:39:2b:04:81:33:54:d3:69:b1:
         c5:bb:52:b3:a4:8b:28:62:5b:5f:21:da:d0:a4:90:11:f5:3a:
         a1:e6:12:aa:ba:46:4f:d3:2e:07:94:b6:28:fc:65:aa:ba:8b:
         e2:a5:b4:5d:e5:66:3f:c0:98:2b:7c:c3:b9:47:0c:d7:ed:6a:
         f7:0d:38:59:26:f5:1d:b2:19:71:1f:82:5c:d0:73:dc:60:f1:
         15:37:e8:41:20:3b:db:67:d0:5d:45:81:cb:98:b0:39:1f:16:
         07:c6:e9:96:e8:8f:14:ee:57:b8:7e:de:ea:2f:57:1c:e1:41:
         85:fa:c6:ed:90:12:c3:a1:fd:2c:01:18:28:9f:c7:dc:8b:b3:
         4d:2c:1e:89:ce:2f:09:da:f3:34:00:04:6b:e2:92:d6:18:9d:
         05:ea:9b:8a:0b:2f:3a:c3:88:34:ee:be:2a:dc:23:17:01:ca:
         76:84:67:69:5d:5d:31:2a:83:3a:bf:9f:b6:dd:b6:c9:c1:d7:
         85:f5:16:98:54:5b:09:8e:93:82:82:d0:05:71:59:54:28:56:
         fa:99:77:d8:c5:84:e5:8b:14:26:40:31:4f:54:2c:a4:85:33:
         d6:72:45:8c:73:3e:76:50:9a:59:b3:68:d4:b9:00:e6:aa:8d:
         0e:ed:51:f8:dd:5f:8f:f2:de:e8:f1:fb:52:19:bf:c7:f3:d9:
         c2:cf:c7:9a:2a:e6:ad:a1:8b:fd:c6:c5:2a:1d:2a:43:58:9f:
         76:27:6a:ee:6d:e9:2b:ee:84:d4:31:28:12:de:29:4f:1e:50:
         6e:01:7b:65:96:c4:58:b0:2f:dc:1d:c5:e1:63:14:9a:9c:e5:
         52:62:ff:31:4b:84:7b:78:46:cf:55:b6:87:0b:2b:5f:37:ed:
         0c:f5:76:cb:d5:9e:3b:07:27:e9:57:dc:c8:a2:e9:21:f1:b9:
         d2:c3:62:14:f0:93:f4:7e:47:75:fe:ff:ec:8c:04:8d:3e:65:
         a0:e4:49:28:70:6b:c4:75:51:3e:7b:31:37:b8:ee:e6:66:22:
         f2:fe:40:27:41:c4:46:23:2c:14:76:eb:5b:9d:8b:fb:58:5f:
         cc:94:0c:e2:c2:42:84:b3
-----BEGIN CERTIFICATE-----
MIIEzTCCArWgAwIBAgIQLIHf6TcFmrE8IiRkg2xkujANBgkqhkiG9w0BAQsFADA4
MRAwDgYDVQQDDAdSb290IENBMRcwFQYDVQQKDA5EZXZlbG9wbWVudCBWTTELMAkG
A1UEBhMCTkwwHhcNMjAwOTAxMTAxNzA2WhcNMjMwOTAxMTAxNzA2WjBNMQswCQYD
VQQGEwJOTDEXMBUGA1UECgwORGV2ZWxvcG1lbnQgVk0xJTAjBgNVBAMMHGRlbW8t
Z3NzcC5zdGVwdXAuZXhhbXBsZS5jb20wggEiMA0GCSqGSIb3DQEBAQUAA4IBDwAw
ggEKAoIBAQDF0ItaKn3rMUVKK4SqXmoTcUq6uH3l4jN+JRXM7fU8m8CAf1KYTVwC
LFHiejYBWqzmhQ8SkQgQ3C+D1fiOdXeh1xaPurse88EunwZTxyL6pWTigoWLzgs1
SkhEayX5Qt2fsjGSoQwjiIsoz4llGwBmBVw4sd7jt9aQiZfW2a3wXC3jNHox4STP
VicyOqH50gvF2lX/Q9ILzetm9seIdm7eS6B6zL0Vqj5hPajr3VIVPSrDRnt8dIXN
ehqKLqIrlusDCkqqiIfHXJYmlYKPPuB0LO+sysMRArLAKIXudQ8crCcR+aVxdW0d
IE6786p+4QnkaKKbfTugKfxf3BaB9t1JAgMBAAGjgb0wgbowHQYDVR0OBBYEFNF0
5GMVBl6r0k7pO2DO19R/UWRUMGAGA1UdIwRZMFeAFETElB3j1hnZcsqoVqXnnW4+
7kKHoTykOjA4MRAwDgYDVQQDDAdSb290IENBMRcwFQYDVQQKDA5EZXZlbG9wbWVu
dCBWTTELMAkGA1UEBhMCTkyCAQAwDwYDVR0TAQH/BAUwAwIBADAOBgNVHQ8BAf8E
BAMCBaAwFgYDVR0lAQH/BAwwCgYIKwYBBQUHAwEwDQYJKoZIhvcNAQELBQADggIB
AGRyjOfpBSn/URFv/mFPPCtUJe4hGZTCjwgP7xYQhJ04vZU3LKC/tcBuIdT/GnxI
NSvt8vdEAyCplpFiUQznT59QDVlipthbnC+sRGUQwMNbN1rmDnTNVJTjKAgQYeXH
0fZFPTkrBIEzVNNpscW7UrOkiyhiW18h2tCkkBH1OqHmEqq6Rk/TLgeUtij8Zaq6
i+KltF3lZj/AmCt8w7lHDNftavcNOFkm9R2yGXEfglzQc9xg8RU36EEgO9tn0F1F
gcuYsDkfFgfG6ZbojxTuV7h+3uovVxzhQYX6xu2QEsOh/SwBGCifx9yLs00sHonO
Lwna8zQABGviktYYnQXqm4oLLzrDiDTuvircIxcBynaEZ2ldXTEqgzq/n7bdtsnB
14X1FphUWwmOk4KC0AVxWVQoVvqZd9jFhOWLFCZAMU9ULKSFM9ZyRYxzPnZQmlmz
aNS5AOaqjQ7tUfjdX4/y3ujx+1IZv8fz2cLPx5oq5q2hi/3GxSodKkNYn3Ynau5t
6SvuhNQxKBLeKU8eUG4Be2WWxFiwL9wdxeFjFJqc5VJi/zFLhHt4Rs9VtocLK183
7Qz1dsvVnjsHJ+lX3Mii6SHxudLDYhTwk/R+R3X+/+yMBI0+ZaDkSShwa8R1UT57
MTe47uZmIvL+QCdBxEYjLBR261udi/tYX8yUDOLCQoSz
-----END CERTIFICATE-----
