Certificate:
    Data:
        Version: 3 (0x2)
        Serial Number:
            2c:81:df:e9:37:05:9a:b1:3c:22:24:64:83:6c:64:bb
    Signature Algorithm: sha256WithRSAEncryption
        Issuer: CN=Root CA, O=Development VM, C=NL
        Validity
            Not Before: Sep  1 10:17:06 2020 GMT
            Not After : Sep  1 10:17:06 2023 GMT
        Subject: C=NL, O=Development VM, CN=demo-gssp-2.stepup.example.com
        Subject Public Key Info:
            Public Key Algorithm: rsaEncryption
                Public-Key: (2048 bit)
                Modulus:
                    00:be:39:56:7c:4e:35:1c:58:fe:4c:dc:20:85:3c:
                    33:91:f7:50:38:56:a6:94:72:61:77:80:0a:12:6b:
                    4d:cf:76:0d:fb:09:95:2b:7a:3d:9c:dd:fc:a4:8f:
                    0b:2b:76:e7:1b:3d:1f:c8:6e:3e:30:aa:46:c0:eb:
                    5c:db:a6:be:f1:99:83:5f:ce:b1:11:81:01:c9:a3:
                    76:73:0a:8c:6e:f0:01:27:18:73:03:7a:d4:91:4c:
                    37:8a:f7:f9:28:33:b9:89:c4:e2:e5:00:ce:4b:9e:
                    05:aa:eb:64:e0:6f:b4:76:32:4e:c0:47:d3:36:aa:
                    af:a1:77:57:9e:27:72:37:98:f2:e5:a1:41:5f:e6:
                    54:0a:2f:05:50:23:1e:ff:bb:ab:fe:b1:97:da:6a:
                    35:f4:b5:47:47:dd:4d:b3:6d:47:97:30:2c:39:9b:
                    33:a5:f9:5e:8e:bd:21:fa:e2:9e:e7:27:c8:3b:b2:
                    9b:06:7a:a4:d6:21:2d:94:dd:85:70:d9:9b:47:5e:
                    9b:3a:ee:a1:c7:45:db:e1:a4:4c:50:4a:89:73:2d:
                    a6:7f:b8:40:d4:68:00:94:59:fc:c8:c2:46:94:b1:
                    4b:fc:0e:10:5f:7a:c0:d8:de:7c:2f:09:67:ed:ee:
                    48:dd:1f:c7:e6:4c:25:ed:16:ec:3c:c1:df:82:ad:
                    46:ef
                Exponent: 65537 (0x10001)
        X509v3 extensions:
            X509v3 Subject Key Identifier: 
                CE:76:79:8D:4C:55:14:84:AE:FF:75:40:E0:CC:A6:55:15:6C:DC:85
            X509v3 Authority Key Identifier: 
                keyid:44:C4:94:1D:E3:D6:19:D9:72:CA:A8:56:A5:E7:9D:6E:3E:EE:42:87
                DirName:/CN=Root CA/O=Development VM/C=NL
                serial:00

            X509v3 Basic Constraints: critical
                CA:FALSE, pathlen:0
            X509v3 Key Usage: critical
                Digital Signature, Key Encipherment
            X509v3 Extended Key Usage: critical
                TLS Web Server Authentication
    Signature Algorithm: sha256WithRSAEncryption
         30:c7:1b:17:73:88:9e:4a:d7:50:f9:79:4e:b6:eb:c1:8b:95:
         a3:ad:0b:72:37:c0:4b:cc:a4:69:19:91:6a:53:33:44:9d:dd:
         7b:11:14:e4:78:41:96:70:26:3f:5e:67:40:f1:16:04:59:3c:
         f7:a1:4f:9f:be:0a:1e:ed:db:b0:7d:90:c1:4e:c2:7a:72:7b:
         49:71:b7:bf:02:02:41:f2:ff:b6:58:76:3c:40:9c:01:2f:66:
         0e:dd:e7:7e:54:5a:95:a8:f3:a0:ac:44:32:5e:7b:9f:d4:32:
         0d:01:6b:0f:88:74:da:4a:d8:e7:b1:74:88:6a:b1:de:0d:19:
         38:a0:b3:9a:77:f4:5f:ec:cd:7e:5d:ec:35:c7:f1:7e:a2:fc:
         4f:70:cc:7c:c2:89:d2:21:82:4c:a7:fb:31:f0:2c:1a:c4:80:
         55:41:da:e3:3e:5d:a2:27:a4:fb:da:a0:14:14:53:ff:2e:67:
         53:0c:f4:df:f9:05:e9:8e:0a:a5:56:29:f4:c3:be:da:06:57:
         3d:7d:72:85:14:d0:bd:fe:3a:96:36:95:09:99:fa:40:e3:a5:
         11:88:ba:5d:fa:76:5c:bf:c8:23:11:eb:ab:6e:a2:51:ab:88:
         c5:14:ae:35:fe:c8:e1:e8:68:89:1d:36:a5:e1:c4:9c:8c:70:
         ff:39:4c:60:80:1a:8a:3d:f4:c4:19:83:37:88:3f:aa:3f:80:
         bb:65:cc:05:13:52:7e:9d:b4:5a:8a:c7:7f:39:b3:c0:d1:79:
         d3:61:07:a2:95:21:30:43:1a:86:2e:a0:d5:56:d3:9c:96:92:
         f8:ed:93:9b:a2:9b:93:94:58:05:52:58:e9:48:0e:37:21:8d:
         9c:56:7a:df:27:7d:d6:0c:89:49:69:71:a1:5a:e5:25:18:94:
         74:af:05:dd:6f:72:1a:25:16:88:60:ca:01:6c:24:83:3e:a3:
         e4:8d:71:43:8b:01:c0:1f:61:c0:e8:ff:88:61:ea:0a:92:3c:
         d5:a9:d8:3a:b7:2d:b1:ed:c6:ac:5c:79:f4:6a:a2:b1:e2:e4:
         47:6b:27:c6:28:18:43:d7:58:5b:01:1f:b5:52:7e:72:35:05:
         35:3b:30:cf:a7:a8:5c:dd:03:ca:77:8e:8b:cd:2b:ea:cc:a6:
         52:93:85:9b:f4:78:13:a9:a4:ef:07:16:2b:cc:c3:dd:d2:3a:
         34:6a:f1:21:59:1c:2c:d8:b9:0e:bf:68:57:3f:2b:c0:1f:65:
         28:35:44:a2:ac:94:23:5f:2f:8a:c8:8b:10:b9:2d:e8:63:77:
         f9:29:a4:1b:32:7e:92:52:b5:ad:bb:bc:97:f0:fe:8d:e4:c7:
         63:42:67:2b:3b:b2:4f:2b
-----BEGIN CERTIFICATE-----
MIIEzzCCAregAwIBAgIQLIHf6TcFmrE8IiRkg2xkuzANBgkqhkiG9w0BAQsFADA4
MRAwDgYDVQQDDAdSb290IENBMRcwFQYDVQQKDA5EZXZlbG9wbWVudCBWTTELMAkG
A1UEBhMCTkwwHhcNMjAwOTAxMTAxNzA2WhcNMjMwOTAxMTAxNzA2WjBPMQswCQYD
VQQGEwJOTDEXMBUGA1UECgwORGV2ZWxvcG1lbnQgVk0xJzAlBgNVBAMMHmRlbW8t
Z3NzcC0yLnN0ZXB1cC5leGFtcGxlLmNvbTCCASIwDQYJKoZIhvcNAQEBBQADggEP
ADCCAQoCggEBAL45VnxONRxY/kzcIIU8M5H3UDhWppRyYXeAChJrTc92DfsJlSt6
PZzd/KSPCyt25xs9H8huPjCqRsDrXNumvvGZg1/OsRGBAcmjdnMKjG7wAScYcwN6
1JFMN4r3+SgzuYnE4uUAzkueBarrZOBvtHYyTsBH0zaqr6F3V54ncjeY8uWhQV/m
VAovBVAjHv+7q/6xl9pqNfS1R0fdTbNtR5cwLDmbM6X5Xo69IfrinucnyDuymwZ6
pNYhLZTdhXDZm0demzruocdF2+GkTFBKiXMtpn+4QNRoAJRZ/MjCRpSxS/wOEF96
wNjefC8JZ+3uSN0fx+ZMJe0W7DzB34KtRu8CAwEAAaOBvTCBujAdBgNVHQ4EFgQU
znZ5jUxVFISu/3VA4MymVRVs3IUwYAYDVR0jBFkwV4AURMSUHePWGdlyyqhWpeed
bj7uQoehPKQ6MDgxEDAOBgNVBAMMB1Jvb3QgQ0ExFzAVBgNVBAoMDkRldmVsb3Bt
ZW50IFZNMQswCQYDVQQGEwJOTIIBADAPBgNVHRMBAf8EBTADAgEAMA4GA1UdDwEB
/wQEAwIFoDAWBgNVHSUBAf8EDDAKBggrBgEFBQcDATANBgkqhkiG9w0BAQsFAAOC
AgEAMMcbF3OInkrXUPl5TrbrwYuVo60LcjfAS8ykaRmRalMzRJ3dexEU5HhBlnAm
P15nQPEWBFk896FPn74KHu3bsH2QwU7CenJ7SXG3vwICQfL/tlh2PECcAS9mDt3n
flRalajzoKxEMl57n9QyDQFrD4h02krY57F0iGqx3g0ZOKCzmnf0X+zNfl3sNcfx
fqL8T3DMfMKJ0iGCTKf7MfAsGsSAVUHa4z5doiek+9qgFBRT/y5nUwz03/kF6Y4K
pVYp9MO+2gZXPX1yhRTQvf46ljaVCZn6QOOlEYi6Xfp2XL/IIxHrq26iUauIxRSu
Nf7I4ehoiR02peHEnIxw/zlMYIAaij30xBmDN4g/qj+Au2XMBRNSfp20WorHfzmz
wNF502EHopUhMEMahi6g1VbTnJaS+O2Tm6Kbk5RYBVJY6UgONyGNnFZ63yd91gyJ
SWlxoVrlJRiUdK8F3W9yGiUWiGDKAWwkgz6j5I1xQ4sBwB9hwOj/iGHqCpI81anY
Orctse3GrFx59GqiseLkR2snxigYQ9dYWwEftVJ+cjUFNTswz6eoXN0DyneOi80r
6symUpOFm/R4E6mk7wcWK8zD3dI6NGrxIVkcLNi5Dr9oVz8rwB9lKDVEoqyUI18v
isiLELkt6GN3+SmkGzJ+klK1rbu8l/D+jeTHY0JnKzuyTys=
-----END CERTIFICATE-----
