Certificate:
    Data:
        Version: 3 (0x2)
        Serial Number:
            2c:81:df:e9:37:05:9a:b1:3c:22:24:64:83:6c:64:b3
    Signature Algorithm: sha256WithRSAEncryption
        Issuer: CN=Root CA, O=Development VM, C=NL
        Validity
            Not Before: Sep  1 10:17:05 2020 GMT
            Not After : Sep  1 10:17:05 2023 GMT
        Subject: C=NL, O=Development VM, CN=selfservice.stepup.example.com
        Subject Public Key Info:
            Public Key Algorithm: rsaEncryption
                Public-Key: (2048 bit)
                Modulus:
                    00:c0:1b:61:da:9d:be:1a:71:d0:0e:70:ec:4b:65:
                    03:5c:2c:a3:8d:f1:2c:fa:3b:01:ee:2e:d8:96:6d:
                    9b:1d:45:f6:13:ae:b0:5f:a3:43:c9:2e:c2:e9:af:
                    2a:79:32:a5:cf:97:ab:37:99:24:49:97:00:ca:9d:
                    51:38:55:fd:c8:55:f8:d9:53:71:f8:73:b8:ab:02:
                    84:6e:cc:82:f2:b3:8d:42:2a:c5:55:db:59:2a:11:
                    3e:18:82:a7:79:a8:26:04:6b:4a:ff:8f:78:73:6c:
                    0a:94:83:a9:1b:f6:aa:78:8a:e4:26:d3:84:a1:22:
                    c8:6a:85:a3:a3:fc:47:25:46:21:f1:3a:b4:79:84:
                    54:18:07:8f:cd:ab:24:06:1a:65:d3:65:c5:86:e4:
                    63:c9:00:08:d5:e2:68:1d:90:4d:80:26:9c:95:e2:
                    eb:7e:0f:c9:47:54:6f:bb:c8:c0:f5:e0:94:99:1a:
                    8b:74:74:3c:03:56:22:5e:14:93:84:45:cc:de:7b:
                    53:2a:5b:5a:3c:9f:68:11:bd:77:34:d4:bf:53:51:
                    59:8d:3f:0c:ff:c9:24:a1:f5:72:2c:4d:f4:9b:f6:
                    8b:c3:f8:dc:ed:8b:df:07:29:b6:84:19:d7:d5:0c:
                    30:10:49:d6:b1:72:c1:3a:63:d4:79:b2:20:80:64:
                    cb:11
                Exponent: 65537 (0x10001)
        X509v3 extensions:
            X509v3 Subject Key Identifier: 
                A3:12:72:71:09:7B:F9:C9:0E:D4:24:F9:B2:0A:E7:20:0A:30:DA:08
            X509v3 Authority Key Identifier: 
                keyid:44:C4:94:1D:E3:D6:19:D9:72:CA:A8:56:A5:E7:9D:6E:3E:EE:42:87
                DirName:/CN=Root CA/O=Development VM/C=NL
                serial:00

            X509v3 Basic Constraints: critical
                CA:FALSE, pathlen:0
            X509v3 Key Usage: critical
                Digital Signature, Key Encipherment
            X509v3 Extended Key Usage: critical
                TLS Web Server Authentication
    Signature Algorithm: sha256WithRSAEncryption
         2e:c8:49:8a:7c:8b:2c:c7:b8:35:0a:34:3f:34:15:12:30:d3:
         0c:11:75:59:c3:7c:cd:51:c5:f9:60:c3:f6:c9:66:8c:1d:09:
         6d:a8:21:26:e6:21:40:a1:88:d9:79:8e:05:b2:0a:e0:8b:80:
         e5:c2:bf:d4:98:b4:2a:6d:70:bf:d9:34:42:07:6d:cd:de:33:
         c6:15:80:d5:d6:8f:bd:46:57:ef:6a:9d:d8:f1:77:e6:48:9c:
         a1:1a:85:75:72:89:99:cd:b2:4e:87:56:7b:fa:60:6e:3b:aa:
         99:eb:33:bc:14:48:bf:cf:e9:1a:f9:04:9e:fd:56:35:94:f6:
         ac:d7:0c:f6:6b:ac:cc:4c:5a:7d:dd:34:2a:11:83:25:b0:b8:
         a5:49:02:86:7f:20:aa:44:ca:99:54:bf:d1:5f:77:e3:0b:f9:
         6d:7b:ec:df:95:be:fc:01:24:7c:83:80:09:48:12:4d:07:ae:
         68:66:8f:23:0a:0f:17:8b:51:e7:6d:e4:6c:17:5c:92:7a:c4:
         c1:27:ef:9c:2e:eb:93:96:db:ea:67:88:b6:d7:f0:a4:b9:1c:
         f5:e8:99:fc:95:57:03:02:e9:8c:bc:d3:2e:73:37:9d:69:c2:
         a9:38:e0:0b:83:7f:5a:91:d8:57:2e:22:97:53:35:1a:b9:93:
         e8:f7:3c:ee:f6:4e:92:f0:91:cc:88:c6:99:e7:bc:92:49:d9:
         3d:3d:df:f7:09:43:58:65:ec:8d:2d:9b:a9:70:5c:d3:5e:8f:
         e6:92:c6:5e:9c:28:42:72:6f:57:a3:41:37:c4:ba:3a:74:6f:
         9c:d1:a3:b4:9d:9d:88:7a:8f:56:9d:00:6c:16:09:e2:ad:41:
         86:24:1f:4d:1f:fe:21:c4:ab:2e:f1:7b:4b:87:89:11:c5:d2:
         39:0c:45:40:25:cf:26:b5:96:9e:92:e6:28:01:7a:23:80:b8:
         7f:8c:3e:d6:bf:d0:d9:66:1c:ff:72:ea:32:00:d6:2e:de:93:
         97:b2:8e:12:30:00:2b:7a:e7:d2:8e:fa:d3:3a:3e:ad:e5:ee:
         a4:94:2b:03:2b:2d:49:1e:a6:8c:0b:ff:62:e2:da:67:5f:91:
         73:d5:5c:41:32:3c:7a:c2:f7:2f:59:f8:22:fa:a6:52:af:bf:
         d4:ff:16:bb:6c:1a:d4:85:ee:2b:bd:88:4e:f4:42:bf:82:c3:
         ec:ff:cc:a9:15:89:7e:27:f1:11:9f:84:3d:d7:ab:62:fd:cd:
         8d:c5:00:cc:17:67:5e:fe:c2:81:10:33:73:1c:63:0a:c2:02:
         9f:0f:35:8b:49:dc:fb:9d:3c:7d:1f:9b:9e:3e:fe:0a:39:a4:
         71:87:61:a0:c0:7a:c1:17
-----BEGIN CERTIFICATE-----
MIIEzzCCAregAwIBAgIQLIHf6TcFmrE8IiRkg2xkszANBgkqhkiG9w0BAQsFADA4
MRAwDgYDVQQDDAdSb290IENBMRcwFQYDVQQKDA5EZXZlbG9wbWVudCBWTTELMAkG
A1UEBhMCTkwwHhcNMjAwOTAxMTAxNzA1WhcNMjMwOTAxMTAxNzA1WjBPMQswCQYD
VQQGEwJOTDEXMBUGA1UECgwORGV2ZWxvcG1lbnQgVk0xJzAlBgNVBAMMHnNlbGZz
ZXJ2aWNlLnN0ZXB1cC5leGFtcGxlLmNvbTCCASIwDQYJKoZIhvcNAQEBBQADggEP
ADCCAQoCggEBAMAbYdqdvhpx0A5w7EtlA1wso43xLPo7Ae4u2JZtmx1F9hOusF+j
Q8kuwumvKnkypc+XqzeZJEmXAMqdUThV/chV+NlTcfhzuKsChG7MgvKzjUIqxVXb
WSoRPhiCp3moJgRrSv+PeHNsCpSDqRv2qniK5CbThKEiyGqFo6P8RyVGIfE6tHmE
VBgHj82rJAYaZdNlxYbkY8kACNXiaB2QTYAmnJXi634PyUdUb7vIwPXglJkai3R0
PANWIl4Uk4RFzN57UypbWjyfaBG9dzTUv1NRWY0/DP/JJKH1cixN9Jv2i8P43O2L
3wcptoQZ19UMMBBJ1rFywTpj1HmyIIBkyxECAwEAAaOBvTCBujAdBgNVHQ4EFgQU
oxJycQl7+ckO1CT5sgrnIAow2ggwYAYDVR0jBFkwV4AURMSUHePWGdlyyqhWpeed
bj7uQoehPKQ6MDgxEDAOBgNVBAMMB1Jvb3QgQ0ExFzAVBgNVBAoMDkRldmVsb3Bt
ZW50IFZNMQswCQYDVQQGEwJOTIIBADAPBgNVHRMBAf8EBTADAgEAMA4GA1UdDwEB
/wQEAwIFoDAWBgNVHSUBAf8EDDAKBggrBgEFBQcDATANBgkqhkiG9w0BAQsFAAOC
AgEALshJinyLLMe4NQo0PzQVEjDTDBF1WcN8zVHF+WDD9slmjB0JbaghJuYhQKGI
2XmOBbIK4IuA5cK/1Ji0Km1wv9k0Qgdtzd4zxhWA1daPvUZX72qd2PF35kicoRqF
dXKJmc2yTodWe/pgbjuqmeszvBRIv8/pGvkEnv1WNZT2rNcM9muszExafd00KhGD
JbC4pUkChn8gqkTKmVS/0V934wv5bXvs35W+/AEkfIOACUgSTQeuaGaPIwoPF4tR
523kbBdcknrEwSfvnC7rk5bb6meIttfwpLkc9eiZ/JVXAwLpjLzTLnM3nWnCqTjg
C4N/WpHYVy4il1M1GrmT6Pc87vZOkvCRzIjGmee8kknZPT3f9wlDWGXsjS2bqXBc
016P5pLGXpwoQnJvV6NBN8S6OnRvnNGjtJ2diHqPVp0AbBYJ4q1BhiQfTR/+IcSr
LvF7S4eJEcXSOQxFQCXPJrWWnpLmKAF6I4C4f4w+1r/Q2WYc/3LqMgDWLt6Tl7KO
EjAAK3rn0o760zo+reXupJQrAystSR6mjAv/YuLaZ1+Rc9VcQTI8esL3L1n4Ivqm
Uq+/1P8Wu2wa1IXuK72ITvRCv4LD7P/MqRWJfifxEZ+EPderYv3NjcUAzBdnXv7C
gRAzcxxjCsICnw81i0nc+508fR+bnj7+CjmkcYdhoMB6wRc=
-----END CERTIFICATE-----
