Certificate:
    Data:
        Version: 3 (0x2)
        Serial Number:
            2c:81:df:e9:37:05:9a:b1:3c:22:24:64:83:6c:64:b4
    Signature Algorithm: sha256WithRSAEncryption
        Issuer: CN=Root CA, O=Development VM, C=NL
        Validity
            Not Before: Sep  1 10:17:05 2020 GMT
            Not After : Sep  1 10:17:05 2023 GMT
        Subject: C=NL, O=Development VM, CN=manage.stepup.example.com
        Subject Public Key Info:
            Public Key Algorithm: rsaEncryption
                Public-Key: (2048 bit)
                Modulus:
                    00:df:e8:5e:ba:6f:58:3c:95:e9:2b:34:93:82:02:
                    ef:ae:09:10:be:dc:17:4e:a6:6b:a3:66:10:f8:95:
                    65:94:7d:12:74:b8:13:a4:f9:61:99:40:55:ac:1b:
                    6f:e9:6e:13:29:c8:7e:a9:0f:0e:b6:8a:e9:2f:0f:
                    43:89:66:93:de:9e:fb:4e:97:f6:d3:50:bc:4e:30:
                    4b:f6:f3:70:d6:5a:4c:69:e2:3c:71:43:e8:8a:cf:
                    48:39:35:32:2b:6b:b9:b3:3a:a3:83:c8:14:be:a7:
                    5c:7a:6b:20:c1:88:2b:25:3b:3d:aa:8b:e8:67:ec:
                    69:fb:bc:cc:30:d5:fe:e6:18:6c:5f:b0:07:56:7e:
                    6f:01:4c:0f:80:de:d2:ee:2f:1d:4e:87:f0:1f:5b:
                    72:a0:ed:28:34:73:8c:80:82:fd:1b:1c:a0:04:d1:
                    0a:4a:4e:ad:2a:17:b1:58:60:0b:af:34:3e:13:f7:
                    0f:90:70:91:55:21:1c:25:06:2f:ad:ee:c7:9f:43:
                    53:5b:83:f0:43:d3:c2:7c:92:cc:58:47:88:cc:a9:
                    44:4b:24:b3:90:c2:cd:48:e1:45:42:a1:8e:23:de:
                    63:ea:67:f0:99:6a:b7:ad:ed:76:7e:5a:33:90:93:
                    71:d6:58:35:3a:c4:72:cb:85:15:a7:c1:ed:2f:44:
                    ff:35
                Exponent: 65537 (0x10001)
        X509v3 extensions:
            X509v3 Subject Key Identifier: 
                45:F2:CA:AA:A6:D4:67:39:24:3B:10:6C:B1:FF:79:CF:08:18:74:7F
            X509v3 Authority Key Identifier: 
                keyid:44:C4:94:1D:E3:D6:19:D9:72:CA:A8:56:A5:E7:9D:6E:3E:EE:42:87
                DirName:/CN=Root CA/O=Development VM/C=NL
                serial:00

            X509v3 Basic Constraints: critical
                CA:FALSE, pathlen:0
            X509v3 Key Usage: critical
                Digital Signature, Key Encipherment
            X509v3 Extended Key Usage: critical
                TLS Web Server Authentication
    Signature Algorithm: sha256WithRSAEncryption
         36:b0:39:fe:d4:51:d2:6a:eb:61:44:ce:bb:e9:b7:8a:05:39:
         ad:e2:72:3c:be:68:a9:66:f4:aa:90:57:07:a0:3a:94:a2:d9:
         c6:12:1f:b2:ff:3e:e3:27:ec:07:6c:27:5d:d9:f2:98:66:06:
         26:65:ce:a1:3c:ee:8d:ec:f2:61:b9:eb:e2:1f:10:bd:11:a1:
         b9:2d:b1:3d:17:7a:f4:c2:01:60:b3:19:ad:45:4c:f9:50:11:
         fb:5c:01:c0:09:06:60:d7:92:35:13:6d:26:6b:d9:63:8d:e8:
         25:c3:01:56:0d:79:bb:84:72:ea:b0:72:0a:9d:d3:b6:03:9a:
         41:fe:2f:ac:08:66:c3:42:df:ee:05:93:d3:ad:7f:93:d4:a2:
         7b:c2:ad:13:25:06:3b:9a:ce:26:35:55:34:06:cb:b5:72:cc:
         d3:92:0f:b5:c8:48:76:be:81:33:76:72:88:d9:d9:de:05:bd:
         b4:ba:b6:e9:48:f9:d9:6c:6d:b9:11:fa:41:ef:22:9c:42:7a:
         76:fe:60:37:79:eb:06:c3:94:0b:e0:d6:fb:30:47:50:dc:92:
         e9:66:de:76:71:18:65:37:65:20:50:04:a4:1a:5d:d2:67:19:
         7b:b2:e2:92:5c:bc:fa:38:59:b4:9a:92:5b:f7:17:e9:e7:d6:
         87:95:c8:08:8a:13:b0:bb:51:51:5d:bf:b8:2b:b0:e7:84:15:
         1e:a6:36:5b:e7:c0:33:48:1a:5a:6b:16:3c:5c:5b:a4:1a:c7:
         ac:34:0c:dd:fa:1d:3b:ec:4e:b9:55:52:e6:5f:ca:8a:16:d1:
         a9:37:d4:dc:14:ff:12:58:88:36:99:23:1f:b7:88:c0:26:bd:
         31:7a:f9:d9:29:19:6b:09:a0:49:24:0a:49:dd:67:5d:96:7d:
         35:6d:a2:2d:00:58:7e:d2:42:76:12:3c:99:ec:08:50:df:d1:
         99:6d:eb:89:9c:13:24:56:29:34:a2:dd:ac:84:94:ab:73:af:
         77:20:40:59:82:c9:f2:c4:bd:f0:34:b0:09:9b:c0:05:f5:de:
         dc:84:41:2e:39:e0:f2:a0:1d:24:d7:b2:27:a6:e3:60:88:bc:
         e3:b7:b0:6d:8b:97:46:54:75:57:1c:6a:bc:69:cd:14:10:fc:
         3b:aa:ab:0b:8f:af:4b:9e:c2:2f:98:11:ad:12:57:88:9c:06:
         59:51:e0:53:15:77:bb:02:fc:82:e6:d5:ad:e5:97:4c:92:be:
         0e:08:ed:87:55:b2:a4:ac:b9:23:cf:a5:2f:7c:48:52:e6:a6:
         1d:dd:33:ee:98:bd:75:c5:06:48:dd:5a:a3:12:60:0f:21:98:
         5c:f0:59:26:e8:06:b6:f4
-----BEGIN CERTIFICATE-----
MIIEyjCCArKgAwIBAgIQLIHf6TcFmrE8IiRkg2xktDANBgkqhkiG9w0BAQsFADA4
MRAwDgYDVQQDDAdSb290IENBMRcwFQYDVQQKDA5EZXZlbG9wbWVudCBWTTELMAkG
A1UEBhMCTkwwHhcNMjAwOTAxMTAxNzA1WhcNMjMwOTAxMTAxNzA1WjBKMQswCQYD
VQQGEwJOTDEXMBUGA1UECgwORGV2ZWxvcG1lbnQgVk0xIjAgBgNVBAMMGW1hbmFn
ZS5zdGVwdXAuZXhhbXBsZS5jb20wggEiMA0GCSqGSIb3DQEBAQUAA4IBDwAwggEK
AoIBAQDf6F66b1g8lekrNJOCAu+uCRC+3BdOpmujZhD4lWWUfRJ0uBOk+WGZQFWs
G2/pbhMpyH6pDw62iukvD0OJZpPenvtOl/bTULxOMEv283DWWkxp4jxxQ+iKz0g5
NTIra7mzOqODyBS+p1x6ayDBiCslOz2qi+hn7Gn7vMww1f7mGGxfsAdWfm8BTA+A
3tLuLx1Oh/AfW3Kg7Sg0c4yAgv0bHKAE0QpKTq0qF7FYYAuvND4T9w+QcJFVIRwl
Bi+t7sefQ1Nbg/BD08J8ksxYR4jMqURLJLOQws1I4UVCoY4j3mPqZ/CZaret7XZ+
WjOQk3HWWDU6xHLLhRWnwe0vRP81AgMBAAGjgb0wgbowHQYDVR0OBBYEFEXyyqqm
1Gc5JDsQbLH/ec8IGHR/MGAGA1UdIwRZMFeAFETElB3j1hnZcsqoVqXnnW4+7kKH
oTykOjA4MRAwDgYDVQQDDAdSb290IENBMRcwFQYDVQQKDA5EZXZlbG9wbWVudCBW
TTELMAkGA1UEBhMCTkyCAQAwDwYDVR0TAQH/BAUwAwIBADAOBgNVHQ8BAf8EBAMC
BaAwFgYDVR0lAQH/BAwwCgYIKwYBBQUHAwEwDQYJKoZIhvcNAQELBQADggIBADaw
Of7UUdJq62FEzrvpt4oFOa3icjy+aKlm9KqQVwegOpSi2cYSH7L/PuMn7AdsJ13Z
8phmBiZlzqE87o3s8mG56+IfEL0RobktsT0XevTCAWCzGa1FTPlQEftcAcAJBmDX
kjUTbSZr2WON6CXDAVYNebuEcuqwcgqd07YDmkH+L6wIZsNC3+4Fk9Otf5PUonvC
rRMlBjuaziY1VTQGy7VyzNOSD7XISHa+gTN2cojZ2d4FvbS6tulI+dlsbbkR+kHv
IpxCenb+YDd56wbDlAvg1vswR1Dckulm3nZxGGU3ZSBQBKQaXdJnGXuy4pJcvPo4
WbSaklv3F+nn1oeVyAiKE7C7UVFdv7grsOeEFR6mNlvnwDNIGlprFjxcW6Qax6w0
DN36HTvsTrlVUuZfyooW0ak31NwU/xJYiDaZIx+3iMAmvTF6+dkpGWsJoEkkCknd
Z12WfTVtoi0AWH7SQnYSPJnsCFDf0Zlt64mcEyRWKTSi3ayElKtzr3cgQFmCyfLE
vfA0sAmbwAX13tyEQS454PKgHSTXsiem42CIvOO3sG2Ll0ZUdVccarxpzRQQ/Duq
qwuPr0uewi+YEa0SV4icBllR4FMVd7sC/ILm1a3ll0ySvg4I7YdVsqSsuSPPpS98
SFLmph3dM+6YvXXFBkjdWqMSYA8hmFzwWSboBrb0
-----END CERTIFICATE-----
