Certificate:
    Data:
        Version: 3 (0x2)
        Serial Number:
            2c:81:df:e9:37:05:9a:b1:3c:22:24:64:83:6c:64:b9
    Signature Algorithm: sha256WithRSAEncryption
        Issuer: CN=Root CA, O=Development VM, C=NL
        Validity
            Not Before: Sep  1 10:17:06 2020 GMT
            Not After : Sep  1 10:17:06 2023 GMT
        Subject: C=NL, O=Development VM, CN=simplesaml.stepup.example.com
        Subject Public Key Info:
            Public Key Algorithm: rsaEncryption
                Public-Key: (2048 bit)
                Modulus:
                    00:b5:e7:be:82:39:f5:68:94:81:89:23:e6:22:5e:
                    61:37:d9:30:44:4a:b6:70:6c:74:0f:84:47:17:84:
                    69:07:6a:b7:d2:ad:5a:cb:e2:4b:27:6d:f5:15:69:
                    ce:2d:4b:37:12:ae:27:0d:91:dc:d9:2b:24:42:6e:
                    e4:f2:2b:fe:f0:5d:aa:38:5e:75:11:17:6b:0c:68:
                    a2:77:35:2d:c3:cd:f4:25:61:be:4b:57:4b:a3:7c:
                    12:3a:37:6e:e9:7c:80:e3:e9:81:93:21:55:c7:38:
                    91:ed:9e:45:75:7d:43:d7:5a:af:1b:05:ef:7f:ab:
                    07:fc:2a:f4:c9:18:fa:3c:f7:f7:dd:4b:40:60:f8:
                    78:00:2d:28:b1:fb:86:ab:8d:94:47:1e:c3:06:5b:
                    59:c4:d3:c6:75:1b:ee:51:bb:a3:80:db:bc:d7:fe:
                    0b:4a:b2:5e:c8:89:af:de:82:0e:3f:b4:56:32:6c:
                    90:b5:da:68:18:c7:e7:d9:3e:79:71:2e:ff:71:9f:
                    0e:02:67:ed:e2:61:0e:d8:53:ab:ca:9f:57:39:72:
                    47:5b:83:4d:c5:12:3f:07:4f:4d:48:fa:fc:15:72:
                    90:f2:2e:bd:03:bc:27:fc:4b:9b:fa:b7:bd:0c:0c:
                    81:86:4f:fb:21:fd:a3:df:d7:2b:fc:f5:9b:c0:8f:
                    36:29
                Exponent: 65537 (0x10001)
        X509v3 extensions:
            X509v3 Subject Key Identifier: 
                38:CE:D2:B4:41:68:86:16:D6:31:FF:57:27:74:BC:6E:59:D8:49:35
            X509v3 Authority Key Identifier: 
                keyid:44:C4:94:1D:E3:D6:19:D9:72:CA:A8:56:A5:E7:9D:6E:3E:EE:42:87
                DirName:/CN=Root CA/O=Development VM/C=NL
                serial:00

            X509v3 Basic Constraints: critical
                CA:FALSE, pathlen:0
            X509v3 Key Usage: critical
                Digital Signature, Key Encipherment
            X509v3 Extended Key Usage: critical
                TLS Web Server Authentication
    Signature Algorithm: sha256WithRSAEncryption
         4a:77:7d:61:40:7a:a9:71:05:f6:02:7e:72:01:92:ae:65:5e:
         cb:23:dc:ed:d4:7a:83:2d:fb:eb:29:13:29:89:9e:69:ab:7b:
         fe:d6:51:f8:b6:1a:e8:f1:95:59:35:bb:f3:31:fa:14:0b:33:
         63:35:d3:7a:de:07:df:dc:d4:13:39:b3:3a:4c:a1:cf:d7:58:
         ad:81:79:a1:dd:4c:5f:d4:26:64:d8:03:be:a2:4e:55:4b:51:
         54:d3:86:22:bc:eb:6b:8d:c0:80:51:5a:e3:ac:4f:01:a7:d1:
         43:17:a3:0b:d1:d6:68:33:6e:bc:50:63:a5:31:dc:e5:08:27:
         0a:3d:51:e8:44:b8:82:26:63:4f:61:02:9b:6e:30:c0:f2:e1:
         9b:b7:bd:6a:82:91:ee:ec:e3:0f:1d:4c:51:d6:51:d4:84:1c:
         2a:13:73:cf:92:8f:20:39:ef:c8:86:dc:b1:37:25:47:30:59:
         1d:b6:f4:01:4f:af:00:3d:e8:0a:bd:3f:f9:6f:a3:1a:0b:e6:
         81:e1:b0:7e:9e:70:32:18:a5:e1:2f:4d:9b:89:d9:79:9d:bc:
         72:f7:4d:e4:fd:5e:35:0c:27:c7:a7:4a:f8:d2:94:4d:0b:88:
         66:4f:29:12:e9:9e:28:f6:bc:d3:b1:49:7e:ea:a9:34:7b:4b:
         17:d1:5f:45:bb:94:5d:df:d1:03:e4:f5:58:2e:cc:cf:19:66:
         be:4f:2a:13:45:80:86:9d:53:d4:52:5c:5e:7b:86:f1:bb:18:
         09:c1:21:8a:9f:69:d6:fb:3b:64:63:f4:02:89:43:5f:ae:6d:
         3c:0d:19:1e:f9:fb:5c:10:3e:55:62:2f:e2:4c:4a:c5:09:3e:
         ed:da:02:26:ae:ad:b4:99:e6:e9:ad:a4:df:b7:ee:cb:3e:e7:
         91:7e:65:b0:12:8b:b6:b0:71:33:00:20:0b:a1:64:a0:0c:e5:
         19:95:20:32:80:64:c8:dc:5d:36:04:26:75:f5:f5:02:2c:ad:
         07:18:84:c0:7e:0c:de:6c:1c:bf:18:25:11:ad:b7:75:7b:53:
         61:ad:fc:4b:81:3e:4c:af:a9:28:bb:f2:bb:b1:18:6e:63:4c:
         d8:b8:ce:74:d1:5a:c4:85:17:ba:3d:0a:bd:48:ad:b2:f0:55:
         51:2c:1f:36:83:bd:72:53:23:26:1d:3f:d1:3c:77:2b:40:8c:
         12:f8:31:3b:4b:71:c6:86:f0:77:5a:78:c4:14:fe:27:f1:6c:
         43:55:95:0a:ba:60:e3:6c:d9:6c:a7:90:1d:44:07:94:24:1c:
         cb:33:32:e0:eb:27:98:d3:48:31:35:23:df:4b:ec:a2:e2:49:
         0a:f0:24:1a:a5:a8:49:fb
-----BEGIN CERTIFICATE-----
MIIEzjCCAragAwIBAgIQLIHf6TcFmrE8IiRkg2xkuTANBgkqhkiG9w0BAQsFADA4
MRAwDgYDVQQDDAdSb290IENBMRcwFQYDVQQKDA5EZXZlbG9wbWVudCBWTTELMAkG
A1UEBhMCTkwwHhcNMjAwOTAxMTAxNzA2WhcNMjMwOTAxMTAxNzA2WjBOMQswCQYD
VQQGEwJOTDEXMBUGA1UECgwORGV2ZWxvcG1lbnQgVk0xJjAkBgNVBAMMHXNpbXBs
ZXNhbWwuc3RlcHVwLmV4YW1wbGUuY29tMIIBIjANBgkqhkiG9w0BAQEFAAOCAQ8A
MIIBCgKCAQEAtee+gjn1aJSBiSPmIl5hN9kwREq2cGx0D4RHF4RpB2q30q1ay+JL
J231FWnOLUs3Eq4nDZHc2SskQm7k8iv+8F2qOF51ERdrDGiidzUtw830JWG+S1dL
o3wSOjdu6XyA4+mBkyFVxziR7Z5FdX1D11qvGwXvf6sH/Cr0yRj6PPf33UtAYPh4
AC0osfuGq42URx7DBltZxNPGdRvuUbujgNu81/4LSrJeyImv3oIOP7RWMmyQtdpo
GMfn2T55cS7/cZ8OAmft4mEO2FOryp9XOXJHW4NNxRI/B09NSPr8FXKQ8i69A7wn
/Eub+re9DAyBhk/7If2j39cr/PWbwI82KQIDAQABo4G9MIG6MB0GA1UdDgQWBBQ4
ztK0QWiGFtYx/1cndLxuWdhJNTBgBgNVHSMEWTBXgBRExJQd49YZ2XLKqFal551u
Pu5Ch6E8pDowODEQMA4GA1UEAwwHUm9vdCBDQTEXMBUGA1UECgwORGV2ZWxvcG1l
bnQgVk0xCzAJBgNVBAYTAk5MggEAMA8GA1UdEwEB/wQFMAMCAQAwDgYDVR0PAQH/
BAQDAgWgMBYGA1UdJQEB/wQMMAoGCCsGAQUFBwMBMA0GCSqGSIb3DQEBCwUAA4IC
AQBKd31hQHqpcQX2An5yAZKuZV7LI9zt1HqDLfvrKRMpiZ5pq3v+1lH4thro8ZVZ
NbvzMfoUCzNjNdN63gff3NQTObM6TKHP11itgXmh3Uxf1CZk2AO+ok5VS1FU04Yi
vOtrjcCAUVrjrE8Bp9FDF6ML0dZoM268UGOlMdzlCCcKPVHoRLiCJmNPYQKbbjDA
8uGbt71qgpHu7OMPHUxR1lHUhBwqE3PPko8gOe/IhtyxNyVHMFkdtvQBT68APegK
vT/5b6MaC+aB4bB+nnAyGKXhL02bidl5nbxy903k/V41DCfHp0r40pRNC4hmTykS
6Z4o9rzTsUl+6qk0e0sX0V9Fu5Rd39ED5PVYLszPGWa+TyoTRYCGnVPUUlxee4bx
uxgJwSGKn2nW+ztkY/QCiUNfrm08DRke+ftcED5VYi/iTErFCT7t2gImrq20mebp
raTft+7LPueRfmWwEou2sHEzACALoWSgDOUZlSAygGTI3F02BCZ19fUCLK0HGITA
fgzebBy/GCURrbd1e1NhrfxLgT5Mr6kou/K7sRhuY0zYuM500VrEhRe6PQq9SK2y
8FVRLB82g71yUyMmHT/RPHcrQIwS+DE7S3HGhvB3WnjEFP4n8WxDVZUKumDjbNls
p5AdRAeUJBzLMzLg6yeY00gxNSPfS+yi4kkK8CQapahJ+w==
-----END CERTIFICATE-----
