Certificate:
    Data:
        Version: 3 (0x2)
        Serial Number:
            e7:fd:ba:e5:a7:ff:8a:2d:f5:f0:0a:05:56:22:da:ea
    Signature Algorithm: sha256WithRSAEncryption
        Issuer: CN=Root CA, O=Development VM, C=NL
        Validity
            Not Before: Sep  1 10:18:11 2020 GMT
            Not After : Sep  1 10:18:11 2023 GMT
        Subject: C=NL, O=Development VM, CN=gateway.stepup.example.com
        Subject Public Key Info:
            Public Key Algorithm: rsaEncryption
                Public-Key: (2048 bit)
                Modulus:
                    00:c1:be:4a:c6:60:29:27:83:ff:cd:6b:ee:6d:24:
                    78:f1:cc:80:55:6f:16:4b:40:0d:df:2e:5a:83:48:
                    bb:83:dd:62:41:64:55:64:d2:bb:f6:7b:9b:91:40:
                    0f:02:60:4b:f2:4e:a7:51:11:3e:07:46:82:8d:be:
                    50:97:9f:74:00:11:66:0f:4b:25:b5:88:22:9b:32:
                    bb:c7:c6:db:ef:1c:69:ad:ea:c9:36:50:1a:78:98:
                    c9:ed:db:29:2a:9c:64:cd:92:dc:7d:55:23:2c:3c:
                    16:7b:91:e2:ed:3a:6f:82:5c:f9:9a:45:97:41:54:
                    e6:eb:3a:f4:66:df:da:80:6d:85:8d:21:44:cd:50:
                    97:cd:9f:14:64:e3:6b:aa:9e:8b:9b:bb:e2:97:c3:
                    c4:15:1e:57:f9:a4:f9:c2:f8:29:83:e4:ce:b7:9e:
                    a1:4e:d1:d5:2f:a2:78:67:43:e2:87:e4:cd:33:13:
                    bb:d8:cf:cc:23:87:5f:77:d1:ad:17:29:33:6f:44:
                    47:a3:03:ee:5d:18:f9:fd:40:94:96:1e:b4:e6:04:
                    ce:5d:a8:4c:cf:34:4c:ec:76:66:bb:8c:37:b9:17:
                    3a:77:ce:38:08:e5:26:20:39:68:ef:2f:fc:0e:1e:
                    d6:c7:84:06:c1:e7:40:b5:9e:cf:ce:81:c4:c1:31:
                    87:99
                Exponent: 65537 (0x10001)
        X509v3 extensions:
            X509v3 Subject Key Identifier: 
                B7:5B:29:42:A6:25:CB:2A:7D:94:04:8E:32:73:B0:D8:1A:CC:1C:EA
            X509v3 Authority Key Identifier: 
                keyid:6D:C0:16:7E:FE:E1:87:F4:3B:4F:30:59:C2:05:BD:2B:EB:B2:93:1C
                DirName:/CN=Root CA/O=Development VM/C=NL
                serial:00

            X509v3 Basic Constraints: critical
                CA:FALSE, pathlen:0
            X509v3 Key Usage: critical
                Digital Signature, Key Encipherment
            X509v3 Extended Key Usage: critical
                TLS Web Server Authentication
    Signature Algorithm: sha256WithRSAEncryption
         95:89:e0:6c:3a:4c:87:75:e4:39:76:5f:1d:3e:71:38:d1:05:
         e5:ad:68:99:b9:a7:f9:bb:15:5b:37:2c:99:d5:80:26:7b:75:
         85:c5:96:9b:a7:25:80:c9:6a:07:d7:6e:2f:ba:bb:da:5e:68:
         17:94:76:08:df:0a:cd:f0:e5:cc:8c:84:72:f2:5e:bb:f8:09:
         7e:73:bd:03:80:79:b0:ce:21:f6:2a:ec:25:78:cb:27:21:57:
         ea:b1:08:fc:17:ff:1a:0b:c2:07:4f:4a:31:d5:6f:52:9a:43:
         dc:a9:d8:1d:6c:54:08:0d:39:34:c5:99:a3:f8:c7:c1:a2:85:
         e5:a4:ea:f2:87:43:d2:6c:3c:67:bc:6f:1d:d1:34:64:a5:bf:
         9f:85:65:9c:c4:f8:89:28:86:47:ae:6b:e9:9b:6d:4b:2b:94:
         63:75:e1:d6:1f:fa:0f:05:d1:13:ee:98:9d:5e:af:02:7a:1f:
         c4:a2:88:82:11:5c:e3:79:21:d9:75:3f:5a:dc:b1:e8:e2:50:
         62:ef:52:6e:f4:77:10:06:d6:62:06:9f:44:63:7d:45:01:08:
         ee:2d:f7:fe:b3:54:02:60:cc:91:cb:83:35:d1:81:d7:35:f9:
         56:42:0c:44:fb:89:1b:93:d7:41:c9:82:d1:e6:46:fe:3f:b2:
         b1:f0:8f:ef:2b:f5:18:42:39:ae:bc:cf:a2:ec:23:c6:f2:31:
         b5:99:73:92:f9:87:cb:ff:d9:0f:47:67:d9:d5:02:70:8a:ab:
         bc:51:e4:26:b5:9b:ac:e7:40:56:63:be:5e:4b:78:f1:8d:eb:
         7f:aa:2c:57:a8:d2:9a:23:d7:8f:e8:9c:17:aa:ed:1b:18:28:
         ee:a6:1e:e8:bf:a2:04:db:ae:5c:83:1c:0c:bd:c6:09:a2:ae:
         ee:3f:46:df:3e:35:a6:4a:15:74:8b:8f:ef:fc:22:c9:f9:b6:
         65:ab:31:6e:63:d5:c6:41:26:52:73:c6:ba:b2:f5:2a:eb:a4:
         ae:76:69:df:96:bb:1d:01:79:52:40:44:65:0b:b6:f7:98:03:
         c6:36:b8:f8:5c:0d:b9:4a:22:c2:34:c6:13:e4:16:31:11:e0:
         0d:5f:aa:74:6e:c4:77:34:96:24:59:38:58:3d:fc:66:ff:b8:
         36:1a:9e:df:ab:86:51:44:50:8f:3b:9b:e1:7d:a7:92:34:73:
         15:76:e9:4b:c4:23:8e:be:b9:70:24:f3:0f:21:ae:65:8f:97:
         0d:78:51:56:e6:30:ac:f2:78:64:40:ad:f1:b9:61:31:11:22:
         79:35:99:b6:df:59:15:96:1c:b2:ba:50:37:09:08:87:31:6b:
         13:37:95:1c:38:1e:a4:c3
-----BEGIN CERTIFICATE-----
MIIEzDCCArSgAwIBAgIRAOf9uuWn/4ot9fAKBVYi2uowDQYJKoZIhvcNAQELBQAw
ODEQMA4GA1UEAwwHUm9vdCBDQTEXMBUGA1UECgwORGV2ZWxvcG1lbnQgVk0xCzAJ
BgNVBAYTAk5MMB4XDTIwMDkwMTEwMTgxMVoXDTIzMDkwMTEwMTgxMVowSzELMAkG
A1UEBhMCTkwxFzAVBgNVBAoMDkRldmVsb3BtZW50IFZNMSMwIQYDVQQDDBpnYXRl
d2F5LnN0ZXB1cC5leGFtcGxlLmNvbTCCASIwDQYJKoZIhvcNAQEBBQADggEPADCC
AQoCggEBAMG+SsZgKSeD/81r7m0kePHMgFVvFktADd8uWoNIu4PdYkFkVWTSu/Z7
m5FADwJgS/JOp1ERPgdGgo2+UJefdAARZg9LJbWIIpsyu8fG2+8caa3qyTZQGniY
ye3bKSqcZM2S3H1VIyw8FnuR4u06b4Jc+ZpFl0FU5us69Gbf2oBthY0hRM1Ql82f
FGTja6qei5u74pfDxBUeV/mk+cL4KYPkzreeoU7R1S+ieGdD4ofkzTMTu9jPzCOH
X3fRrRcpM29ER6MD7l0Y+f1AlJYetOYEzl2oTM80TOx2ZruMN7kXOnfOOAjlJiA5
aO8v/A4e1seEBsHnQLWez86BxMExh5kCAwEAAaOBvTCBujAdBgNVHQ4EFgQUt1sp
QqYlyyp9lASOMnOw2BrMHOowYAYDVR0jBFkwV4AUbcAWfv7hh/Q7TzBZwgW9K+uy
kxyhPKQ6MDgxEDAOBgNVBAMMB1Jvb3QgQ0ExFzAVBgNVBAoMDkRldmVsb3BtZW50
IFZNMQswCQYDVQQGEwJOTIIBADAPBgNVHRMBAf8EBTADAgEAMA4GA1UdDwEB/wQE
AwIFoDAWBgNVHSUBAf8EDDAKBggrBgEFBQcDATANBgkqhkiG9w0BAQsFAAOCAgEA
lYngbDpMh3XkOXZfHT5xONEF5a1ombmn+bsVWzcsmdWAJnt1hcWWm6clgMlqB9du
L7q72l5oF5R2CN8KzfDlzIyEcvJeu/gJfnO9A4B5sM4h9irsJXjLJyFX6rEI/Bf/
GgvCB09KMdVvUppD3KnYHWxUCA05NMWZo/jHwaKF5aTq8odD0mw8Z7xvHdE0ZKW/
n4VlnMT4iSiGR65r6ZttSyuUY3Xh1h/6DwXRE+6YnV6vAnofxKKIghFc43kh2XU/
Wtyx6OJQYu9SbvR3EAbWYgafRGN9RQEI7i33/rNUAmDMkcuDNdGB1zX5VkIMRPuJ
G5PXQcmC0eZG/j+ysfCP7yv1GEI5rrzPouwjxvIxtZlzkvmHy//ZD0dn2dUCcIqr
vFHkJrWbrOdAVmO+Xkt48Y3rf6osV6jSmiPXj+icF6rtGxgo7qYe6L+iBNuuXIMc
DL3GCaKu7j9G3z41pkoVdIuP7/wiyfm2ZasxbmPVxkEmUnPGurL1KuukrnZp35a7
HQF5UkBEZQu295gDxja4+FwNuUoiwjTGE+QWMRHgDV+qdG7EdzSWJFk4WD38Zv+4
Nhqe36uGUURQjzub4X2nkjRzFXbpS8Qjjr65cCTzDyGuZY+XDXhRVuYwrPJ4ZECt
8blhMREieTWZtt9ZFZYcsrpQNwkIhzFrEzeVHDgepMM=
-----END CERTIFICATE-----
