Certificate:
    Data:
        Version: 3 (0x2)
        Serial Number:
            e7:fd:ba:e5:a7:ff:8a:2d:f5:f0:0a:05:56:22:da:eb
    Signature Algorithm: sha256WithRSAEncryption
        Issuer: CN=Root CA, O=Development VM, C=NL
        Validity
            Not Before: Sep  1 10:18:11 2020 GMT
            Not After : Sep  1 10:18:11 2023 GMT
        Subject: C=NL, O=Development VM, CN=ra.stepup.example.com
        Subject Public Key Info:
            Public Key Algorithm: rsaEncryption
                Public-Key: (2048 bit)
                Modulus:
                    00:cc:8d:27:eb:7f:7a:03:28:87:12:23:3d:bb:55:
                    97:5d:7a:0f:a4:4e:f9:01:88:0f:37:08:db:3c:e2:
                    ba:02:08:d6:ba:8c:79:ba:30:7f:4f:ef:1b:65:38:
                    02:1d:05:e9:99:3b:cb:62:af:ea:77:e1:6b:c1:c2:
                    4f:0e:2b:c4:e4:c5:5a:73:da:04:4e:bc:8b:94:29:
                    36:e2:dd:c5:bb:b1:9c:95:0d:43:db:3c:76:ff:f1:
                    f6:f4:c0:82:17:a6:46:e8:50:45:7c:52:2b:06:22:
                    98:1c:29:61:4d:ff:77:24:c7:be:17:f2:9a:46:b9:
                    74:ae:b7:43:28:06:e7:ad:e1:c0:a8:d0:cf:59:9e:
                    ee:8e:31:af:8c:8f:9f:89:ff:f4:86:ca:4a:0a:1b:
                    06:2a:36:df:f5:ae:a0:c3:26:49:f8:e5:8d:c2:9a:
                    78:86:5d:b5:99:43:9a:7f:d6:06:05:08:68:97:76:
                    86:80:f7:ab:bf:bc:fc:8d:db:9f:e0:6b:17:e1:a4:
                    a8:4a:29:b2:d1:93:db:cf:7e:c4:b2:78:32:98:af:
                    78:2e:68:c3:59:85:9b:c8:5a:1c:6f:2a:91:df:80:
                    95:cb:13:6f:99:7a:78:4a:dd:49:1e:98:ca:20:e9:
                    d3:d4:48:70:27:58:0a:70:27:37:30:2b:a9:b5:82:
                    e4:95
                Exponent: 65537 (0x10001)
        X509v3 extensions:
            X509v3 Subject Key Identifier: 
                71:52:8A:AF:68:15:9A:2C:AC:6C:13:0E:B1:A9:16:40:0A:45:A2:CD
            X509v3 Authority Key Identifier: 
                keyid:6D:C0:16:7E:FE:E1:87:F4:3B:4F:30:59:C2:05:BD:2B:EB:B2:93:1C
                DirName:/CN=Root CA/O=Development VM/C=NL
                serial:00

            X509v3 Basic Constraints: critical
                CA:FALSE, pathlen:0
            X509v3 Key Usage: critical
                Digital Signature, Key Encipherment
            X509v3 Extended Key Usage: critical
                TLS Web Server Authentication
    Signature Algorithm: sha256WithRSAEncryption
         06:0d:52:b0:42:8d:e8:6c:f7:f5:61:f8:44:59:e5:30:72:30:
         87:17:30:5a:6f:24:0e:01:18:58:05:b3:a4:3e:e4:35:40:67:
         8b:f6:3c:51:d5:7c:9a:10:20:d8:b3:95:9a:72:0b:12:1d:c8:
         13:f2:72:ed:2c:92:8d:65:c0:05:60:67:4e:4d:35:23:29:e7:
         d4:08:dd:54:ac:28:d5:38:c2:bb:e6:e9:40:4b:95:95:06:7b:
         3e:7f:5a:62:5e:5b:a4:75:d5:df:20:92:ec:a6:57:50:d0:5f:
         06:74:5d:09:c1:5f:b9:07:87:12:db:81:b8:ea:5d:4e:99:ea:
         1c:8f:91:48:28:eb:3b:2c:6c:13:e1:67:dc:1a:23:97:fe:1d:
         44:89:5f:50:52:b1:1c:2e:e0:85:92:34:1d:1c:08:05:de:8e:
         60:95:66:90:91:bd:ab:9b:ce:51:aa:6b:5f:43:f4:26:25:ea:
         07:f3:ce:c8:c0:a0:6f:ea:16:91:78:9c:60:83:fb:b9:a4:8a:
         da:0e:ce:19:81:9f:c4:6b:31:f8:d5:fe:58:20:ba:04:b4:aa:
         ab:25:1e:d0:7d:04:15:85:5e:87:d8:db:13:4a:05:40:d1:3d:
         86:d4:a3:96:3d:b0:36:fb:f9:1e:44:1b:58:0c:bb:e6:81:63:
         fa:0c:5e:86:0e:9d:c2:04:98:2b:be:d7:e3:e8:8b:f0:ac:33:
         f7:f1:06:bf:91:52:bf:cb:38:61:09:06:ac:3d:b8:af:65:bd:
         cc:40:cc:f7:1d:0c:ea:b0:14:69:95:13:52:d5:a5:cb:17:6c:
         b3:e4:e1:38:cb:18:aa:35:92:71:d1:62:7c:2c:d0:8f:19:18:
         09:1c:09:29:29:81:dd:ce:88:b6:8b:2e:87:10:06:7e:73:1c:
         0d:4d:39:28:a0:e8:e4:c0:2b:7a:2b:c4:2f:96:fb:27:9b:d3:
         99:b3:d3:bc:01:51:e5:43:32:91:1d:45:38:c3:50:a6:4e:6b:
         15:d8:cb:24:5b:b9:ca:ef:04:ac:2a:fa:f8:bb:ec:f1:c9:63:
         81:0c:f1:47:5d:84:da:f6:be:d9:6a:cb:22:30:58:4f:c4:5a:
         c4:6b:32:97:b7:9f:00:98:61:bd:f7:d1:b4:3e:87:0e:68:bd:
         46:8d:75:fa:ae:24:15:27:3c:f1:c5:a5:a4:b0:58:4d:19:46:
         e8:ab:1e:8e:81:cf:1a:f2:75:c5:51:05:48:4c:89:86:0e:1e:
         34:bb:ef:01:c2:db:5d:d5:66:3b:d1:16:b0:53:14:71:dd:97:
         28:77:2f:d7:b0:93:2d:20:a8:64:ed:94:55:9c:9f:1a:a9:4a:
         2a:23:a8:34:32:75:e8:db
-----BEGIN CERTIFICATE-----
MIIExzCCAq+gAwIBAgIRAOf9uuWn/4ot9fAKBVYi2uswDQYJKoZIhvcNAQELBQAw
ODEQMA4GA1UEAwwHUm9vdCBDQTEXMBUGA1UECgwORGV2ZWxvcG1lbnQgVk0xCzAJ
BgNVBAYTAk5MMB4XDTIwMDkwMTEwMTgxMVoXDTIzMDkwMTEwMTgxMVowRjELMAkG
A1UEBhMCTkwxFzAVBgNVBAoMDkRldmVsb3BtZW50IFZNMR4wHAYDVQQDDBVyYS5z
dGVwdXAuZXhhbXBsZS5jb20wggEiMA0GCSqGSIb3DQEBAQUAA4IBDwAwggEKAoIB
AQDMjSfrf3oDKIcSIz27VZddeg+kTvkBiA83CNs84roCCNa6jHm6MH9P7xtlOAId
BemZO8tir+p34WvBwk8OK8TkxVpz2gROvIuUKTbi3cW7sZyVDUPbPHb/8fb0wIIX
pkboUEV8UisGIpgcKWFN/3ckx74X8ppGuXSut0MoBuet4cCo0M9Znu6OMa+Mj5+J
//SGykoKGwYqNt/1rqDDJkn45Y3CmniGXbWZQ5p/1gYFCGiXdoaA96u/vPyN25/g
axfhpKhKKbLRk9vPfsSyeDKYr3guaMNZhZvIWhxvKpHfgJXLE2+ZenhK3UkemMog
6dPUSHAnWApwJzcwK6m1guSVAgMBAAGjgb0wgbowHQYDVR0OBBYEFHFSiq9oFZos
rGwTDrGpFkAKRaLNMGAGA1UdIwRZMFeAFG3AFn7+4Yf0O08wWcIFvSvrspMcoTyk
OjA4MRAwDgYDVQQDDAdSb290IENBMRcwFQYDVQQKDA5EZXZlbG9wbWVudCBWTTEL
MAkGA1UEBhMCTkyCAQAwDwYDVR0TAQH/BAUwAwIBADAOBgNVHQ8BAf8EBAMCBaAw
FgYDVR0lAQH/BAwwCgYIKwYBBQUHAwEwDQYJKoZIhvcNAQELBQADggIBAAYNUrBC
jehs9/Vh+ERZ5TByMIcXMFpvJA4BGFgFs6Q+5DVAZ4v2PFHVfJoQINizlZpyCxId
yBPycu0sko1lwAVgZ05NNSMp59QI3VSsKNU4wrvm6UBLlZUGez5/WmJeW6R11d8g
kuymV1DQXwZ0XQnBX7kHhxLbgbjqXU6Z6hyPkUgo6zssbBPhZ9waI5f+HUSJX1BS
sRwu4IWSNB0cCAXejmCVZpCRvaubzlGqa19D9CYl6gfzzsjAoG/qFpF4nGCD+7mk
itoOzhmBn8RrMfjV/lggugS0qqslHtB9BBWFXofY2xNKBUDRPYbUo5Y9sDb7+R5E
G1gMu+aBY/oMXoYOncIEmCu+1+Poi/CsM/fxBr+RUr/LOGEJBqw9uK9lvcxAzPcd
DOqwFGmVE1LVpcsXbLPk4TjLGKo1knHRYnws0I8ZGAkcCSkpgd3OiLaLLocQBn5z
HA1NOSig6OTAK3orxC+W+yeb05mz07wBUeVDMpEdRTjDUKZOaxXYyyRbucrvBKwq
+vi77PHJY4EM8UddhNr2vtlqyyIwWE/EWsRrMpe3nwCYYb330bQ+hw5ovUaNdfqu
JBUnPPHFpaSwWE0ZRuirHo6BzxrydcVRBUhMiYYOHjS77wHC213VZjvRFrBTFHHd
lyh3L9ewky0gqGTtlFWcnxqpSiojqDQydejb
-----END CERTIFICATE-----
