Certificate:
    Data:
        Version: 3 (0x2)
        Serial Number:
            e7:fd:ba:e5:a7:ff:8a:2d:f5:f0:0a:05:56:22:da:f0
    Signature Algorithm: sha256WithRSAEncryption
        Issuer: CN=Root CA, O=Development VM, C=NL
        Validity
            Not Before: Sep  1 10:18:12 2020 GMT
            Not After : Sep  1 10:18:12 2023 GMT
        Subject: C=NL, O=Development VM, CN=webauthn.stepup.example.com
        Subject Public Key Info:
            Public Key Algorithm: rsaEncryption
                Public-Key: (2048 bit)
                Modulus:
                    00:c4:f6:f4:ea:6d:56:53:ef:5f:90:fa:84:e9:eb:
                    e9:94:c1:71:21:4c:81:66:d5:23:c7:e3:04:ec:e9:
                    e3:9e:45:97:20:3b:40:90:a6:74:86:32:61:cf:d1:
                    44:7c:4f:c4:39:a0:5c:ab:9b:1c:b7:a4:0a:31:2a:
                    84:9b:37:97:65:ef:bf:22:92:30:c5:f3:8f:9f:4a:
                    82:58:05:28:54:c1:49:ac:69:89:65:69:71:0f:10:
                    d5:ef:29:7d:d9:16:a2:af:1d:7f:3a:f8:6c:e3:43:
                    7e:17:64:12:41:34:8b:e4:ce:5a:cb:67:1c:d9:5e:
                    e1:70:bd:a7:cf:70:e0:38:5d:4e:86:ea:2e:40:50:
                    50:99:8e:ca:31:6e:59:71:a6:bf:f9:e2:fb:45:ca:
                    ee:b0:b3:13:66:59:fd:14:73:f4:78:67:84:db:21:
                    4d:31:2d:3c:3d:45:3c:d7:88:6f:52:56:96:9e:6c:
                    5d:82:e6:6c:22:1c:5e:7c:11:2e:46:c4:a7:4a:78:
                    f2:02:b8:6b:83:cb:09:23:09:a6:19:17:f3:f3:f2:
                    f7:63:8d:4e:51:9c:26:c6:c6:27:77:81:f7:8c:48:
                    7d:31:62:65:f7:48:df:76:b7:70:4c:79:f3:13:3a:
                    f8:4d:cc:b4:b3:f9:db:cf:db:76:6e:dc:f5:cf:cc:
                    f4:77
                Exponent: 65537 (0x10001)
        X509v3 extensions:
            X509v3 Subject Key Identifier: 
                37:A0:E6:1C:5C:81:02:F8:B1:1A:A8:E3:93:A9:4C:17:AD:AD:C4:4A
            X509v3 Authority Key Identifier: 
                keyid:6D:C0:16:7E:FE:E1:87:F4:3B:4F:30:59:C2:05:BD:2B:EB:B2:93:1C
                DirName:/CN=Root CA/O=Development VM/C=NL
                serial:00

            X509v3 Basic Constraints: critical
                CA:FALSE, pathlen:0
            X509v3 Key Usage: critical
                Digital Signature, Key Encipherment
            X509v3 Extended Key Usage: critical
                TLS Web Server Authentication
    Signature Algorithm: sha256WithRSAEncryption
         0b:d4:1b:22:6f:99:3a:2e:65:31:79:fb:26:55:7b:2b:13:24:
         aa:79:f4:b4:d8:e3:db:52:45:ac:29:28:db:1f:0c:ca:fe:1c:
         d4:6b:98:20:8e:c7:09:16:cc:7f:f5:94:ed:a3:8b:02:5d:c9:
         7c:1d:09:91:1e:5b:d5:96:4b:fe:58:6a:54:30:f2:0b:7e:e1:
         96:e8:29:02:ad:a5:34:d3:23:8a:c9:a6:d6:59:c4:85:25:2c:
         72:75:0e:f6:31:04:c7:8d:f6:dc:2e:77:be:35:f2:89:16:21:
         4c:b0:17:82:6b:77:ca:29:8d:5b:ba:28:0e:0f:71:b3:e4:43:
         3a:a2:be:0e:eb:3f:e0:90:82:be:d0:4f:36:5a:e9:48:ff:25:
         67:99:ab:d3:2b:e9:30:b2:1a:a5:bc:e3:7f:44:ea:f3:01:94:
         36:e7:5d:ae:fc:8c:b1:43:db:e2:c8:8d:9f:15:b8:4a:68:3e:
         02:57:ee:45:a5:0c:44:ba:f4:c9:6a:93:41:be:f3:31:19:a9:
         41:dc:ca:43:ef:3c:c5:31:ed:f5:9b:c2:7a:6a:e8:07:09:2a:
         ef:28:51:85:16:20:25:0e:1c:e8:30:ac:73:b7:b9:29:12:9d:
         a4:0a:85:8c:a0:c4:85:bd:3f:36:36:b7:c9:fe:3b:6e:57:81:
         22:8a:79:12:85:82:da:f1:ad:f7:2e:54:03:07:60:9b:de:98:
         5f:95:c9:e8:4c:86:0d:cb:0e:f8:96:ee:dc:a4:d9:cd:bf:78:
         c7:70:a1:3b:35:95:b1:1f:0c:f8:57:a7:d8:3d:c2:7c:c9:ff:
         f0:2e:27:b3:19:9e:e2:0c:5c:b9:be:75:07:db:5f:f6:20:2e:
         29:ba:4d:cd:b3:7d:b7:a6:68:07:79:06:55:2b:72:6f:36:d8:
         6d:ad:19:90:db:a0:f8:60:a7:35:2d:1a:75:a6:35:88:3c:8c:
         10:68:55:aa:a2:45:51:fe:3a:5d:1e:74:1a:4a:32:86:bc:fb:
         1d:06:c9:f6:60:09:f9:b9:02:e0:96:a7:4f:9d:4c:4b:88:af:
         13:b7:96:d1:bd:11:56:d8:52:e2:90:1c:1b:8b:2b:cb:a9:56:
         f6:7f:75:97:38:bd:0a:58:a7:c8:6f:6f:1e:ba:22:88:49:4d:
         cd:8a:ac:84:3e:6f:da:e1:81:b4:cc:07:2d:03:8a:79:27:b0:
         41:7c:08:30:db:55:93:1b:20:92:0a:10:ef:a2:63:17:5b:59:
         b4:0c:8d:5c:5e:ec:6e:8b:6c:ca:4a:2c:96:90:d5:7e:d2:f0:
         02:ca:ce:f8:0d:43:4d:54:72:6f:a6:fb:16:54:76:e4:a6:0e:
         e3:8b:5a:47:0f:95:ac:e1
-----BEGIN CERTIFICATE-----
MIIEzTCCArWgAwIBAgIRAOf9uuWn/4ot9fAKBVYi2vAwDQYJKoZIhvcNAQELBQAw
ODEQMA4GA1UEAwwHUm9vdCBDQTEXMBUGA1UECgwORGV2ZWxvcG1lbnQgVk0xCzAJ
BgNVBAYTAk5MMB4XDTIwMDkwMTEwMTgxMloXDTIzMDkwMTEwMTgxMlowTDELMAkG
A1UEBhMCTkwxFzAVBgNVBAoMDkRldmVsb3BtZW50IFZNMSQwIgYDVQQDDBt3ZWJh
dXRobi5zdGVwdXAuZXhhbXBsZS5jb20wggEiMA0GCSqGSIb3DQEBAQUAA4IBDwAw
ggEKAoIBAQDE9vTqbVZT71+Q+oTp6+mUwXEhTIFm1SPH4wTs6eOeRZcgO0CQpnSG
MmHP0UR8T8Q5oFyrmxy3pAoxKoSbN5dl778ikjDF84+fSoJYBShUwUmsaYllaXEP
ENXvKX3ZFqKvHX86+GzjQ34XZBJBNIvkzlrLZxzZXuFwvafPcOA4XU6G6i5AUFCZ
jsoxbllxpr/54vtFyu6wsxNmWf0Uc/R4Z4TbIU0xLTw9RTzXiG9SVpaebF2C5mwi
HF58ES5GxKdKePICuGuDywkjCaYZF/Pz8vdjjU5RnCbGxid3gfeMSH0xYmX3SN92
t3BMefMTOvhNzLSz+dvP23Zu3PXPzPR3AgMBAAGjgb0wgbowHQYDVR0OBBYEFDeg
5hxcgQL4sRqo45OpTBetrcRKMGAGA1UdIwRZMFeAFG3AFn7+4Yf0O08wWcIFvSvr
spMcoTykOjA4MRAwDgYDVQQDDAdSb290IENBMRcwFQYDVQQKDA5EZXZlbG9wbWVu
dCBWTTELMAkGA1UEBhMCTkyCAQAwDwYDVR0TAQH/BAUwAwIBADAOBgNVHQ8BAf8E
BAMCBaAwFgYDVR0lAQH/BAwwCgYIKwYBBQUHAwEwDQYJKoZIhvcNAQELBQADggIB
AAvUGyJvmTouZTF5+yZVeysTJKp59LTY49tSRawpKNsfDMr+HNRrmCCOxwkWzH/1
lO2jiwJdyXwdCZEeW9WWS/5YalQw8gt+4ZboKQKtpTTTI4rJptZZxIUlLHJ1DvYx
BMeN9twud7418okWIUywF4Jrd8opjVu6KA4PcbPkQzqivg7rP+CQgr7QTzZa6Uj/
JWeZq9Mr6TCyGqW8439E6vMBlDbnXa78jLFD2+LIjZ8VuEpoPgJX7kWlDES69Mlq
k0G+8zEZqUHcykPvPMUx7fWbwnpq6AcJKu8oUYUWICUOHOgwrHO3uSkSnaQKhYyg
xIW9PzY2t8n+O25XgSKKeRKFgtrxrfcuVAMHYJvemF+VyehMhg3LDviW7tyk2c2/
eMdwoTs1lbEfDPhXp9g9wnzJ//AuJ7MZnuIMXLm+dQfbX/YgLim6Tc2zfbemaAd5
BlUrcm822G2tGZDboPhgpzUtGnWmNYg8jBBoVaqiRVH+Ol0edBpKMoa8+x0GyfZg
Cfm5AuCWp0+dTEuIrxO3ltG9EVbYUuKQHBuLK8upVvZ/dZc4vQpYp8hvbx66IohJ
Tc2KrIQ+b9rhgbTMBy0DinknsEF8CDDbVZMbIJIKEO+iYxdbWbQMjVxe7G6LbMpK
LJaQ1X7S8ALKzvgNQ01Ucm+m+xZUduSmDuOLWkcPlazh
-----END CERTIFICATE-----
