Certificate:
    Data:
        Version: 3 (0x2)
        Serial Number:
            e7:fd:ba:e5:a7:ff:8a:2d:f5:f0:0a:05:56:22:da:ec
    Signature Algorithm: sha256WithRSAEncryption
        Issuer: CN=Root CA, O=Development VM, C=NL
        Validity
            Not Before: Sep  1 10:18:11 2020 GMT
            Not After : Sep  1 10:18:11 2023 GMT
        Subject: C=NL, O=Development VM, CN=selfservice.stepup.example.com
        Subject Public Key Info:
            Public Key Algorithm: rsaEncryption
                Public-Key: (2048 bit)
                Modulus:
                    00:d9:90:f1:59:51:88:7e:77:f7:d6:60:60:cb:dc:
                    a5:53:ac:3a:59:18:74:70:49:1f:bf:79:09:32:e7:
                    d8:85:dc:1a:67:48:b3:fe:19:a2:09:23:21:94:a1:
                    02:ab:96:3f:56:00:6c:d7:47:f9:5b:7a:90:ee:29:
                    b0:7b:f0:5b:0d:ac:95:10:41:56:d7:e3:4f:50:0e:
                    15:1f:5b:f3:66:4b:4f:cb:1a:cc:0f:8a:b4:de:7c:
                    b1:94:9e:9f:b2:b8:5d:1d:da:2c:8d:5a:96:07:83:
                    a2:b7:6c:c5:c0:24:35:eb:53:17:01:ca:a6:c8:6a:
                    52:e0:33:c4:3a:8a:a6:70:a4:46:e8:41:d2:2c:43:
                    65:2e:d3:71:8e:e3:cc:8d:20:f6:b8:07:7f:84:26:
                    85:f0:05:93:d4:33:78:9a:d8:f2:58:90:db:38:48:
                    95:be:65:de:2f:5c:00:12:b6:a2:29:f2:3e:30:06:
                    48:d6:dc:10:7e:f1:22:72:c2:35:07:1d:d2:be:f3:
                    b0:8e:83:84:e6:39:49:43:ee:ce:4b:0c:a2:90:f8:
                    b3:b2:16:18:d4:54:39:33:d5:41:29:40:f8:55:00:
                    af:51:91:bc:c2:cf:74:ba:64:dc:76:a4:c7:39:66:
                    e7:d5:9d:5a:e6:54:2a:00:ae:30:3a:0d:66:d4:d3:
                    ca:a7
                Exponent: 65537 (0x10001)
        X509v3 extensions:
            X509v3 Subject Key Identifier: 
                C4:53:C8:E5:98:3D:EA:C3:0E:65:58:02:04:BD:6B:8F:26:E4:52:AD
            X509v3 Authority Key Identifier: 
                keyid:6D:C0:16:7E:FE:E1:87:F4:3B:4F:30:59:C2:05:BD:2B:EB:B2:93:1C
                DirName:/CN=Root CA/O=Development VM/C=NL
                serial:00

            X509v3 Basic Constraints: critical
                CA:FALSE, pathlen:0
            X509v3 Key Usage: critical
                Digital Signature, Key Encipherment
            X509v3 Extended Key Usage: critical
                TLS Web Server Authentication
    Signature Algorithm: sha256WithRSAEncryption
         55:fd:f3:60:fe:61:f3:85:aa:c6:44:f7:5e:a6:6b:a5:db:24:
         fd:11:9c:03:bc:da:fc:b9:d8:43:47:89:0f:64:14:66:c9:5a:
         ee:43:37:b7:10:3b:10:fc:dc:aa:1a:a0:76:83:47:61:f3:1a:
         cb:6e:2c:36:c2:d4:c0:b7:8a:04:f7:ff:3a:c2:a2:da:4e:b9:
         21:59:82:a3:e8:0c:f6:72:ce:88:d4:66:08:a3:2e:3e:94:92:
         4e:b0:05:95:f3:94:8a:80:39:6f:02:9b:e6:74:89:9b:65:d9:
         07:24:3b:c3:1f:d7:e4:5b:aa:33:92:f1:90:35:fd:71:b9:0d:
         f1:f9:bf:ab:fc:d0:13:9a:fc:20:37:f3:01:76:6c:87:60:a5:
         58:ed:5f:09:80:8d:c2:8f:d1:90:03:bb:1a:17:68:49:32:bd:
         bb:36:76:48:89:32:26:64:b4:47:e1:fa:55:52:52:f4:9a:55:
         45:9c:7c:de:26:a7:df:0d:4d:4d:10:2b:2b:f3:1d:8d:3a:4d:
         d2:72:04:33:76:e5:c9:1f:33:68:b2:47:6c:05:37:88:b8:72:
         59:93:f5:80:a2:2f:14:37:2d:5f:ce:1f:ea:24:79:69:32:89:
         18:c6:b1:c0:5b:03:59:2a:45:03:92:c9:ee:1b:da:d7:a8:91:
         f5:3f:a3:14:a3:ea:23:b7:fc:55:a3:d2:32:51:c6:22:d7:ef:
         15:39:35:a4:df:45:99:42:0c:a6:f6:4f:a0:0a:59:eb:60:3a:
         8a:ec:c5:05:2e:2a:41:f8:2f:b9:0d:cd:67:30:05:e6:dc:89:
         4d:ce:88:46:f1:4a:a5:08:2c:0b:c1:61:64:7e:ae:32:31:02:
         9b:90:6d:47:ef:c1:08:05:46:e0:c4:82:97:07:1f:d3:43:d7:
         72:43:2c:d6:6e:c4:f3:1d:30:52:69:e1:de:11:98:6a:24:bf:
         65:2c:08:76:0f:22:3e:ca:cb:b6:0c:28:17:42:16:09:5d:01:
         75:67:3b:e9:0a:23:73:91:09:e8:67:d3:91:82:5d:39:b6:58:
         69:f5:00:bb:cb:67:5c:7a:e5:fd:4e:6a:d5:12:49:9e:bf:c6:
         3d:a3:65:d8:80:99:56:40:6d:a2:94:d9:f2:d1:83:fe:66:62:
         ee:d6:3d:46:50:5c:1b:e9:f9:f6:ea:10:e4:25:44:09:5f:e9:
         ef:fa:d5:5a:46:e4:42:e5:cd:60:09:6f:29:e4:d0:29:d1:0e:
         70:88:de:c1:29:79:c1:3a:4e:82:29:f9:5a:72:84:f3:4a:f5:
         54:73:44:26:66:91:6a:11:0f:2d:4f:f9:5a:61:71:78:54:17:
         81:63:4f:97:4d:72:59:3c
-----BEGIN CERTIFICATE-----
MIIE0DCCArigAwIBAgIRAOf9uuWn/4ot9fAKBVYi2uwwDQYJKoZIhvcNAQELBQAw
ODEQMA4GA1UEAwwHUm9vdCBDQTEXMBUGA1UECgwORGV2ZWxvcG1lbnQgVk0xCzAJ
BgNVBAYTAk5MMB4XDTIwMDkwMTEwMTgxMVoXDTIzMDkwMTEwMTgxMVowTzELMAkG
A1UEBhMCTkwxFzAVBgNVBAoMDkRldmVsb3BtZW50IFZNMScwJQYDVQQDDB5zZWxm
c2VydmljZS5zdGVwdXAuZXhhbXBsZS5jb20wggEiMA0GCSqGSIb3DQEBAQUAA4IB
DwAwggEKAoIBAQDZkPFZUYh+d/fWYGDL3KVTrDpZGHRwSR+/eQky59iF3BpnSLP+
GaIJIyGUoQKrlj9WAGzXR/lbepDuKbB78FsNrJUQQVbX409QDhUfW/NmS0/LGswP
irTefLGUnp+yuF0d2iyNWpYHg6K3bMXAJDXrUxcByqbIalLgM8Q6iqZwpEboQdIs
Q2Uu03GO48yNIPa4B3+EJoXwBZPUM3ia2PJYkNs4SJW+Zd4vXAAStqIp8j4wBkjW
3BB+8SJywjUHHdK+87COg4TmOUlD7s5LDKKQ+LOyFhjUVDkz1UEpQPhVAK9RkbzC
z3S6ZNx2pMc5ZufVnVrmVCoArjA6DWbU08qnAgMBAAGjgb0wgbowHQYDVR0OBBYE
FMRTyOWYPerDDmVYAgS9a48m5FKtMGAGA1UdIwRZMFeAFG3AFn7+4Yf0O08wWcIF
vSvrspMcoTykOjA4MRAwDgYDVQQDDAdSb290IENBMRcwFQYDVQQKDA5EZXZlbG9w
bWVudCBWTTELMAkGA1UEBhMCTkyCAQAwDwYDVR0TAQH/BAUwAwIBADAOBgNVHQ8B
Af8EBAMCBaAwFgYDVR0lAQH/BAwwCgYIKwYBBQUHAwEwDQYJKoZIhvcNAQELBQAD
ggIBAFX982D+YfOFqsZE916ma6XbJP0RnAO82vy52ENHiQ9kFGbJWu5DN7cQOxD8
3KoaoHaDR2HzGstuLDbC1MC3igT3/zrCotpOuSFZgqPoDPZyzojUZgijLj6Ukk6w
BZXzlIqAOW8Cm+Z0iZtl2QckO8Mf1+RbqjOS8ZA1/XG5DfH5v6v80BOa/CA38wF2
bIdgpVjtXwmAjcKP0ZADuxoXaEkyvbs2dkiJMiZktEfh+lVSUvSaVUWcfN4mp98N
TU0QKyvzHY06TdJyBDN25ckfM2iyR2wFN4i4clmT9YCiLxQ3LV/OH+okeWkyiRjG
scBbA1kqRQOSye4b2teokfU/oxSj6iO3/FWj0jJRxiLX7xU5NaTfRZlCDKb2T6AK
WetgOorsxQUuKkH4L7kNzWcwBebciU3OiEbxSqUILAvBYWR+rjIxApuQbUfvwQgF
RuDEgpcHH9ND13JDLNZuxPMdMFJp4d4RmGokv2UsCHYPIj7Ky7YMKBdCFgldAXVn
O+kKI3ORCehn05GCXTm2WGn1ALvLZ1x65f1OatUSSZ6/xj2jZdiAmVZAbaKU2fLR
g/5mYu7WPUZQXBvp+fbqEOQlRAlf6e/61VpG5ELlzWAJbynk0CnRDnCI3sEpecE6
ToIp+VpyhPNK9VRzRCZmkWoRDy1P+VphcXhUF4FjT5dNclk8
-----END CERTIFICATE-----
