Certificate:
    Data:
        Version: 3 (0x2)
        Serial Number:
            e7:fd:ba:e5:a7:ff:8a:2d:f5:f0:0a:05:56:22:da:f1
    Signature Algorithm: sha256WithRSAEncryption
        Issuer: CN=Root CA, O=Development VM, C=NL
        Validity
            Not Before: Sep  1 10:18:12 2020 GMT
            Not After : Sep  1 10:18:12 2023 GMT
        Subject: C=NL, O=Development VM, CN=keyserver.stepup.example.com
        Subject Public Key Info:
            Public Key Algorithm: rsaEncryption
                Public-Key: (2048 bit)
                Modulus:
                    00:df:2a:48:2c:51:0a:0f:c8:6f:c4:97:69:0b:bf:
                    27:97:46:74:12:b3:aa:5d:96:c2:1f:57:03:36:d0:
                    b9:3b:38:e4:4e:d7:9c:86:37:d3:0e:66:09:9a:09:
                    de:90:af:ea:ce:f2:58:5a:b7:4b:f0:b9:78:2f:7e:
                    dd:ea:54:64:3d:1c:7e:20:54:10:a5:83:3d:51:91:
                    3d:33:e1:45:4f:8a:03:9b:4c:a0:d0:4b:f6:f8:f0:
                    6b:4f:28:47:7a:76:55:8f:83:34:4e:bd:27:d9:51:
                    47:9b:93:d8:ad:e2:a7:3f:9c:5b:5e:ee:3c:fc:59:
                    66:ca:a2:91:85:e9:79:e7:55:a0:1d:45:8d:85:e8:
                    96:30:ec:e6:97:28:1d:53:e6:44:8e:1d:e1:d5:26:
                    33:43:7a:5b:63:c1:b2:c6:90:cf:d5:83:6d:a2:1d:
                    61:f9:eb:0b:e9:a3:21:ee:ef:ec:9b:e6:b4:c8:01:
                    08:4f:3b:24:bd:96:e3:6c:28:cc:5b:52:13:bc:4f:
                    12:56:6d:4b:11:bf:fa:1d:91:12:91:9c:58:bb:57:
                    6a:fc:bc:75:1e:c2:01:d0:55:6b:d3:71:3d:2f:b2:
                    cd:16:bb:07:b7:69:0f:77:69:61:57:0d:5c:fd:dd:
                    dd:ce:fc:5c:0f:42:a0:aa:61:19:0f:98:0c:7a:d5:
                    97:bd
                Exponent: 65537 (0x10001)
        X509v3 extensions:
            X509v3 Subject Key Identifier: 
                24:29:49:23:EB:7E:B9:A2:79:43:71:1E:EA:9F:A3:59:EC:A8:B1:E7
            X509v3 Authority Key Identifier: 
                keyid:6D:C0:16:7E:FE:E1:87:F4:3B:4F:30:59:C2:05:BD:2B:EB:B2:93:1C
                DirName:/CN=Root CA/O=Development VM/C=NL
                serial:00

            X509v3 Basic Constraints: critical
                CA:FALSE, pathlen:0
            X509v3 Key Usage: critical
                Digital Signature, Key Encipherment
            X509v3 Extended Key Usage: critical
                TLS Web Server Authentication
    Signature Algorithm: sha256WithRSAEncryption
         d3:bf:af:66:a3:39:6d:d1:8a:e9:88:82:a9:20:a6:3f:5a:ac:
         5e:42:e1:4e:a9:2f:b4:7d:85:4f:67:df:a5:82:a7:3b:5c:32:
         d0:46:e0:47:51:44:db:be:db:fb:47:5b:75:05:0c:d3:ef:6b:
         d4:60:94:9f:54:4b:39:f9:b5:a7:87:4b:19:12:82:d6:c5:89:
         b3:27:15:56:a3:a8:7e:b4:c9:f9:7b:30:25:39:15:28:ba:c4:
         90:9c:a4:e7:76:ab:a0:ef:8a:0e:0b:43:86:f6:d9:30:2e:9e:
         da:26:38:5f:60:7a:c0:53:fe:dd:cb:d2:4b:4a:61:d6:bc:fb:
         96:62:51:94:40:7b:ac:42:77:76:c5:51:d3:b1:dd:c2:2c:82:
         14:7a:2d:11:3a:f2:cc:d6:2e:c1:f5:72:02:18:56:14:b6:53:
         04:d8:12:86:d9:35:19:bb:83:a0:8b:55:92:37:ca:02:64:d0:
         64:08:a9:d6:34:7b:7b:c8:af:c4:f7:1d:60:f2:97:63:67:c1:
         51:9e:02:f7:88:d3:5e:09:28:e1:71:70:25:dd:19:82:f3:9f:
         ff:3b:7e:cf:49:82:63:3c:39:4a:84:77:10:96:6a:d6:75:f4:
         16:1f:52:db:31:3e:93:1e:58:90:f7:09:3a:3a:02:36:8d:1d:
         5f:d9:15:1c:a7:bd:03:25:5f:c9:04:dc:b9:4d:48:46:fd:09:
         d8:c2:f9:c5:83:9e:35:b6:f7:8d:f2:d6:95:89:31:c3:26:37:
         38:bc:1b:6c:cc:d7:97:ca:33:1e:a4:5c:78:07:e4:a2:3b:a6:
         1d:86:1e:06:0e:11:e0:4e:80:ff:ff:61:c6:de:47:c3:fd:cb:
         c5:cc:52:f0:12:da:e8:5b:4b:30:d0:ae:bb:d1:84:1d:10:6b:
         84:43:7e:3a:89:22:2f:4e:fa:21:7a:65:79:4d:d6:37:e9:1e:
         9f:a4:3b:ff:cb:a6:bf:c1:d2:bd:81:f4:f3:5a:18:db:44:93:
         a1:15:45:ae:5f:cb:f4:ee:e9:73:28:4b:8e:21:6d:6d:2c:87:
         73:d0:bc:eb:69:df:a1:0e:c8:a0:68:e7:4c:95:74:72:61:45:
         24:04:ef:77:25:e1:ab:ee:34:8c:49:c4:63:f0:c5:50:96:68:
         7e:f0:34:28:f4:5d:1b:d5:e5:18:29:62:66:e4:16:ae:4d:80:
         62:0f:8e:fe:b6:c6:14:4e:7b:8d:4d:be:50:ec:d5:b7:07:7a:
         55:03:37:f0:d1:f7:99:b8:29:57:c4:87:da:a5:2b:68:ab:cd:
         e5:52:6a:09:f5:91:61:7d:1d:8e:19:2e:8a:34:9d:b8:10:ae:
         48:20:ad:65:f6:82:60:a1
-----BEGIN CERTIFICATE-----
MIIEzjCCAragAwIBAgIRAOf9uuWn/4ot9fAKBVYi2vEwDQYJKoZIhvcNAQELBQAw
ODEQMA4GA1UEAwwHUm9vdCBDQTEXMBUGA1UECgwORGV2ZWxvcG1lbnQgVk0xCzAJ
BgNVBAYTAk5MMB4XDTIwMDkwMTEwMTgxMloXDTIzMDkwMTEwMTgxMlowTTELMAkG
A1UEBhMCTkwxFzAVBgNVBAoMDkRldmVsb3BtZW50IFZNMSUwIwYDVQQDDBxrZXlz
ZXJ2ZXIuc3RlcHVwLmV4YW1wbGUuY29tMIIBIjANBgkqhkiG9w0BAQEFAAOCAQ8A
MIIBCgKCAQEA3ypILFEKD8hvxJdpC78nl0Z0ErOqXZbCH1cDNtC5OzjkTtechjfT
DmYJmgnekK/qzvJYWrdL8Ll4L37d6lRkPRx+IFQQpYM9UZE9M+FFT4oDm0yg0Ev2
+PBrTyhHenZVj4M0Tr0n2VFHm5PYreKnP5xbXu48/FlmyqKRhel551WgHUWNheiW
MOzmlygdU+ZEjh3h1SYzQ3pbY8GyxpDP1YNtoh1h+esL6aMh7u/sm+a0yAEITzsk
vZbjbCjMW1ITvE8SVm1LEb/6HZESkZxYu1dq/Lx1HsIB0FVr03E9L7LNFrsHt2kP
d2lhVw1c/d3dzvxcD0KgqmEZD5gMetWXvQIDAQABo4G9MIG6MB0GA1UdDgQWBBQk
KUkj6365onlDcR7qn6NZ7Kix5zBgBgNVHSMEWTBXgBRtwBZ+/uGH9DtPMFnCBb0r
67KTHKE8pDowODEQMA4GA1UEAwwHUm9vdCBDQTEXMBUGA1UECgwORGV2ZWxvcG1l
bnQgVk0xCzAJBgNVBAYTAk5MggEAMA8GA1UdEwEB/wQFMAMCAQAwDgYDVR0PAQH/
BAQDAgWgMBYGA1UdJQEB/wQMMAoGCCsGAQUFBwMBMA0GCSqGSIb3DQEBCwUAA4IC
AQDTv69mozlt0YrpiIKpIKY/WqxeQuFOqS+0fYVPZ9+lgqc7XDLQRuBHUUTbvtv7
R1t1BQzT72vUYJSfVEs5+bWnh0sZEoLWxYmzJxVWo6h+tMn5ezAlORUousSQnKTn
dqug74oOC0OG9tkwLp7aJjhfYHrAU/7dy9JLSmHWvPuWYlGUQHusQnd2xVHTsd3C
LIIUei0ROvLM1i7B9XICGFYUtlME2BKG2TUZu4Ogi1WSN8oCZNBkCKnWNHt7yK/E
9x1g8pdjZ8FRngL3iNNeCSjhcXAl3RmC85//O37PSYJjPDlKhHcQlmrWdfQWH1Lb
MT6THliQ9wk6OgI2jR1f2RUcp70DJV/JBNy5TUhG/QnYwvnFg541tveN8taViTHD
Jjc4vBtszNeXyjMepFx4B+SiO6Ydhh4GDhHgToD//2HG3kfD/cvFzFLwEtroW0sw
0K670YQdEGuEQ346iSIvTvohemV5TdY36R6fpDv/y6a/wdK9gfTzWhjbRJOhFUWu
X8v07ulzKEuOIW1tLIdz0Lzrad+hDsigaOdMlXRyYUUkBO93JeGr7jSMScRj8MVQ
lmh+8DQo9F0b1eUYKWJm5BauTYBiD47+tsYUTnuNTb5Q7NW3B3pVAzfw0feZuClX
xIfapStoq83lUmoJ9ZFhfR2OGS6KNJ24EK5IIK1l9oJgoQ==
-----END CERTIFICATE-----
