Certificate:
    Data:
        Version: 3 (0x2)
        Serial Number:
            e7:fd:ba:e5:a7:ff:8a:2d:f5:f0:0a:05:56:22:da:ed
    Signature Algorithm: sha256WithRSAEncryption
        Issuer: CN=Root CA, O=Development VM, C=NL
        Validity
            Not Before: Sep  1 10:18:11 2020 GMT
            Not After : Sep  1 10:18:11 2023 GMT
        Subject: C=NL, O=Development VM, CN=manage.stepup.example.com
        Subject Public Key Info:
            Public Key Algorithm: rsaEncryption
                Public-Key: (2048 bit)
                Modulus:
                    00:b5:a8:9f:3e:46:17:d5:56:f3:93:b4:d5:e6:e9:
                    51:c9:e8:19:78:e0:21:43:90:16:d3:3b:7e:98:c8:
                    7b:49:fe:07:bb:c4:c0:29:b3:0f:50:c8:0e:a5:15:
                    b9:43:81:89:48:07:74:4b:bd:d5:73:7d:82:ee:0d:
                    65:9f:50:84:d3:96:c3:a2:7a:e8:72:55:ec:d6:67:
                    c5:0b:29:32:b2:f4:76:4e:cb:9b:24:39:7a:ca:2c:
                    ff:05:8c:5c:13:6f:df:cc:aa:26:51:3d:9f:e5:4b:
                    e0:1a:1d:55:14:8b:d2:a0:ca:16:f0:a5:6d:34:e9:
                    61:80:41:15:e9:3a:e8:0f:86:98:a2:32:18:21:3b:
                    39:af:53:84:b2:cf:0d:c2:4f:db:ab:be:17:39:fc:
                    8d:b3:96:7f:47:25:ae:49:5e:e5:f1:56:2f:00:78:
                    d3:b0:61:08:20:fa:65:51:ac:29:dc:d4:6f:50:3a:
                    af:8b:03:eb:55:a4:31:50:4b:94:a6:c5:e8:ae:71:
                    93:38:0b:8d:f5:05:fa:c2:1c:7c:95:d0:27:3c:dd:
                    94:82:31:0d:76:9f:cc:f1:b8:d1:3d:09:38:23:8f:
                    e7:46:03:6c:a8:77:c6:27:e6:84:68:5a:8f:37:fa:
                    d1:bf:e6:82:93:e3:8b:c7:3e:2d:a5:e4:88:8c:e1:
                    f2:3b
                Exponent: 65537 (0x10001)
        X509v3 extensions:
            X509v3 Subject Key Identifier: 
                D9:C3:E7:68:48:1D:7A:9B:61:7E:CD:CD:FF:E3:DA:6B:67:7E:95:F5
            X509v3 Authority Key Identifier: 
                keyid:6D:C0:16:7E:FE:E1:87:F4:3B:4F:30:59:C2:05:BD:2B:EB:B2:93:1C
                DirName:/CN=Root CA/O=Development VM/C=NL
                serial:00

            X509v3 Basic Constraints: critical
                CA:FALSE, pathlen:0
            X509v3 Key Usage: critical
                Digital Signature, Key Encipherment
            X509v3 Extended Key Usage: critical
                TLS Web Server Authentication
    Signature Algorithm: sha256WithRSAEncryption
         04:35:ac:cf:de:65:f5:41:09:87:4e:6a:f5:f3:94:50:96:33:
         7e:7b:90:93:70:67:44:8b:2f:8c:c5:a0:76:eb:ca:0e:21:40:
         dd:d2:37:71:07:42:53:03:8b:e8:c4:09:08:6b:e1:0f:73:c6:
         d2:43:51:67:d9:ae:6c:4d:4b:9a:89:10:4a:7f:63:c6:32:2e:
         00:99:0b:ec:e6:c4:27:57:cd:be:36:e3:d7:b6:80:8f:86:21:
         ae:8d:e8:21:ea:fd:da:c4:a0:e6:5e:4c:cd:f8:7f:04:1d:2b:
         fb:35:b6:70:ff:60:d0:ff:35:bd:6e:0d:92:7b:5f:84:d9:a4:
         19:a9:40:39:6f:19:62:f1:b6:3f:76:00:f1:55:2c:11:e4:62:
         86:b0:f0:99:a0:8e:60:64:7e:40:4d:cb:ce:5a:31:dc:67:a2:
         5f:3a:9e:aa:d9:ad:f7:a1:60:31:9c:fd:73:2d:7b:f9:8b:2b:
         07:e3:f0:bf:fc:a2:67:52:30:54:c9:ff:82:46:f5:b9:a2:3a:
         2f:e8:93:e5:3c:ba:a3:cc:49:a6:18:fe:f2:6a:13:ac:e6:5b:
         6f:e1:28:10:80:08:8d:90:40:41:4a:7b:48:63:02:5d:dc:92:
         c6:1c:b5:4f:f4:f6:0f:b3:f8:9a:1e:7d:be:a1:4f:48:28:7a:
         2d:9e:c5:24:9d:3b:44:99:45:76:0b:00:80:0a:f7:fa:83:e6:
         49:c6:fd:99:83:47:53:31:ec:8a:56:89:e0:bc:d9:1e:24:20:
         4d:b6:f1:b8:00:e8:ec:a0:df:de:c0:a3:9e:15:25:d0:3f:1b:
         15:12:ac:28:88:26:b6:6f:bf:ba:f4:e0:cd:45:5d:8d:2c:85:
         54:24:18:a0:ac:b2:17:30:86:0b:dc:b7:7f:98:7b:57:8e:0e:
         1c:5c:6b:10:a2:dd:3b:5e:00:86:1a:9b:8a:72:32:a6:b2:77:
         aa:9e:65:41:4c:0e:01:66:d9:b6:53:b4:e5:d2:dd:a0:e4:2b:
         92:2c:a7:2e:7f:db:b6:42:c7:b8:5f:77:25:41:e7:d1:ed:63:
         bb:43:04:9a:3a:28:bd:a9:7a:d7:80:6f:56:c6:b1:13:2a:ae:
         64:d6:58:48:16:33:c2:d6:7d:40:ff:87:b3:6b:d0:a6:d9:31:
         b6:e8:cf:1f:ad:3b:65:6e:d4:65:03:8e:e4:93:01:e1:84:55:
         0a:9c:06:12:ff:e8:15:16:69:c9:e4:d7:26:38:d5:96:0b:58:
         98:21:d2:fc:26:54:ad:0d:e0:d3:55:e3:c5:f6:48:a0:0d:40:
         b8:4e:79:8d:20:07:08:76:a4:dc:0f:1c:19:c8:43:4c:b6:13:
         3d:47:ed:d9:47:2c:d9:45
-----BEGIN CERTIFICATE-----
MIIEyzCCArOgAwIBAgIRAOf9uuWn/4ot9fAKBVYi2u0wDQYJKoZIhvcNAQELBQAw
ODEQMA4GA1UEAwwHUm9vdCBDQTEXMBUGA1UECgwORGV2ZWxvcG1lbnQgVk0xCzAJ
BgNVBAYTAk5MMB4XDTIwMDkwMTEwMTgxMVoXDTIzMDkwMTEwMTgxMVowSjELMAkG
A1UEBhMCTkwxFzAVBgNVBAoMDkRldmVsb3BtZW50IFZNMSIwIAYDVQQDDBltYW5h
Z2Uuc3RlcHVwLmV4YW1wbGUuY29tMIIBIjANBgkqhkiG9w0BAQEFAAOCAQ8AMIIB
CgKCAQEAtaifPkYX1Vbzk7TV5ulRyegZeOAhQ5AW0zt+mMh7Sf4Hu8TAKbMPUMgO
pRW5Q4GJSAd0S73Vc32C7g1ln1CE05bDonroclXs1mfFCykysvR2TsubJDl6yiz/
BYxcE2/fzKomUT2f5UvgGh1VFIvSoMoW8KVtNOlhgEEV6TroD4aYojIYITs5r1OE
ss8Nwk/bq74XOfyNs5Z/RyWuSV7l8VYvAHjTsGEIIPplUawp3NRvUDqviwPrVaQx
UEuUpsXornGTOAuN9QX6whx8ldAnPN2UgjENdp/M8bjRPQk4I4/nRgNsqHfGJ+aE
aFqPN/rRv+aCk+OLxz4tpeSIjOHyOwIDAQABo4G9MIG6MB0GA1UdDgQWBBTZw+do
SB16m2F+zc3/49prZ36V9TBgBgNVHSMEWTBXgBRtwBZ+/uGH9DtPMFnCBb0r67KT
HKE8pDowODEQMA4GA1UEAwwHUm9vdCBDQTEXMBUGA1UECgwORGV2ZWxvcG1lbnQg
Vk0xCzAJBgNVBAYTAk5MggEAMA8GA1UdEwEB/wQFMAMCAQAwDgYDVR0PAQH/BAQD
AgWgMBYGA1UdJQEB/wQMMAoGCCsGAQUFBwMBMA0GCSqGSIb3DQEBCwUAA4ICAQAE
NazP3mX1QQmHTmr185RQljN+e5CTcGdEiy+MxaB268oOIUDd0jdxB0JTA4voxAkI
a+EPc8bSQ1Fn2a5sTUuaiRBKf2PGMi4AmQvs5sQnV82+NuPXtoCPhiGujegh6v3a
xKDmXkzN+H8EHSv7NbZw/2DQ/zW9bg2Se1+E2aQZqUA5bxli8bY/dgDxVSwR5GKG
sPCZoI5gZH5ATcvOWjHcZ6JfOp6q2a33oWAxnP1zLXv5iysH4/C//KJnUjBUyf+C
RvW5ojov6JPlPLqjzEmmGP7yahOs5ltv4SgQgAiNkEBBSntIYwJd3JLGHLVP9PYP
s/iaHn2+oU9IKHotnsUknTtEmUV2CwCACvf6g+ZJxv2Zg0dTMeyKVongvNkeJCBN
tvG4AOjsoN/ewKOeFSXQPxsVEqwoiCa2b7+69ODNRV2NLIVUJBigrLIXMIYL3Ld/
mHtXjg4cXGsQot07XgCGGpuKcjKmsneqnmVBTA4BZtm2U7Tl0t2g5CuSLKcuf9u2
Qse4X3clQefR7WO7QwSaOii9qXrXgG9WxrETKq5k1lhIFjPC1n1A/4eza9Cm2TG2
6M8frTtlbtRlA47kkwHhhFUKnAYS/+gVFmnJ5NcmONWWC1iYIdL8JlStDeDTVePF
9kigDUC4TnmNIAcIdqTcDxwZyENMthM9R+3ZRyzZRQ==
-----END CERTIFICATE-----
