Certificate:
    Data:
        Version: 3 (0x2)
        Serial Number:
            e7:fd:ba:e5:a7:ff:8a:2d:f5:f0:0a:05:56:22:da:f3
    Signature Algorithm: sha256WithRSAEncryption
        Issuer: CN=Root CA, O=Development VM, C=NL
        Validity
            Not Before: Sep  1 10:18:12 2020 GMT
            Not After : Sep  1 10:18:12 2023 GMT
        Subject: C=NL, O=Development VM, CN=demo-gssp.stepup.example.com
        Subject Public Key Info:
            Public Key Algorithm: rsaEncryption
                Public-Key: (2048 bit)
                Modulus:
                    00:e3:e7:8e:ee:3c:c2:55:1a:5b:98:46:af:29:8d:
                    80:16:eb:85:1b:85:2b:cb:41:bb:71:bb:df:8a:ad:
                    a9:9a:8e:cd:57:b0:5b:c3:66:3c:e7:bb:9e:38:7d:
                    8c:0e:d0:fd:41:d8:86:73:ea:4d:e9:f4:71:c1:a0:
                    da:bc:4d:76:57:52:1c:38:e2:7e:5a:b5:b0:2b:3f:
                    6b:db:ed:51:70:41:da:bd:4b:76:0d:9d:32:3a:11:
                    f2:ba:5b:90:25:4b:e2:9c:e7:b4:db:fd:d0:90:5c:
                    87:1c:d2:9b:6a:be:bf:d2:74:65:97:3f:5d:1a:41:
                    1d:18:39:b5:56:d9:f3:cf:0d:4e:d0:dc:2e:9f:5b:
                    5a:84:4e:13:db:ab:12:39:2c:3d:9b:a6:40:27:e8:
                    91:91:61:d3:a7:b5:94:6e:b9:d8:e9:0d:e9:c8:11:
                    4e:f3:81:67:eb:3f:b3:ff:f4:b6:2e:40:80:ab:1b:
                    4f:28:b3:75:2c:4d:d3:c3:81:f0:ac:7f:43:11:4f:
                    dd:19:a0:4b:c7:87:28:f0:a7:01:e6:71:fe:9e:5f:
                    cf:58:7c:dd:a0:ff:fd:b3:7a:ef:98:f5:50:e1:3b:
                    1c:e8:3d:06:14:5b:2b:1e:19:0b:7c:d3:07:fd:57:
                    a5:ce:e8:82:df:db:ee:34:59:e1:71:e7:5b:21:b2:
                    0f:b3
                Exponent: 65537 (0x10001)
        X509v3 extensions:
            X509v3 Subject Key Identifier: 
                CE:91:8B:61:E8:AF:BB:77:56:7C:C5:1E:D8:A2:BB:4F:01:26:1B:DB
            X509v3 Authority Key Identifier: 
                keyid:6D:C0:16:7E:FE:E1:87:F4:3B:4F:30:59:C2:05:BD:2B:EB:B2:93:1C
                DirName:/CN=Root CA/O=Development VM/C=NL
                serial:00

            X509v3 Basic Constraints: critical
                CA:FALSE, pathlen:0
            X509v3 Key Usage: critical
                Digital Signature, Key Encipherment
            X509v3 Extended Key Usage: critical
                TLS Web Server Authentication
    Signature Algorithm: sha256WithRSAEncryption
         ad:96:ab:fb:8a:a3:d1:e9:8b:c6:5e:24:51:dd:8b:66:16:3c:
         bd:3b:6d:21:2a:53:a8:19:37:96:3c:7f:fb:bb:27:fd:7c:c8:
         05:64:31:7b:43:88:db:15:93:f3:65:cf:0d:b3:da:c1:c5:c6:
         1b:a6:ff:49:5b:ac:74:bf:8a:20:2c:94:10:45:c4:d0:f3:db:
         de:8d:77:e0:01:e7:5e:04:63:2c:fc:a9:4d:4b:85:86:67:58:
         9c:7f:ff:6b:f7:15:f3:8a:73:ae:11:15:72:12:fb:bf:26:1a:
         7c:f0:64:f3:d0:61:89:60:90:0a:c4:d2:be:66:c9:57:be:26:
         4a:6e:58:8e:63:1a:3c:3a:a9:cf:65:f0:23:6b:76:1e:fd:ff:
         83:a3:0d:3b:b8:0c:ac:50:10:f9:fc:37:b1:54:9b:eb:a8:49:
         05:e6:fe:c9:fc:d9:64:c3:62:11:99:1b:8a:ee:27:1b:7d:99:
         c9:e6:9b:dc:9a:2e:c4:ca:da:6b:65:6a:07:51:86:6c:20:ea:
         3a:67:c0:c8:56:86:79:c8:49:7f:40:6e:37:4a:27:e7:09:f4:
         81:e8:54:20:c1:e7:c4:61:aa:9a:d4:a1:69:0f:82:9e:02:0d:
         45:44:c5:ea:f8:f7:de:02:9a:57:91:a1:aa:d0:9b:fb:63:8f:
         ff:cc:f5:b0:8b:e7:f2:83:72:a6:18:79:f7:ed:24:9e:7a:d1:
         d0:9c:ff:17:ca:a1:25:fe:ce:b3:af:6e:25:e1:cb:40:78:62:
         bf:1d:3f:9f:82:ac:82:21:05:57:5d:96:25:91:09:aa:93:ae:
         af:d3:dd:f0:50:11:c6:62:55:fa:b8:38:77:d5:ec:bf:05:e3:
         76:bd:32:9b:97:64:81:ed:3a:46:f2:f9:74:20:e1:92:18:c7:
         17:7c:0c:48:60:af:e6:d6:89:27:1a:b0:82:ef:6f:fb:77:4d:
         be:58:46:cd:6e:1f:52:f4:2c:1a:98:a1:20:8b:b6:4f:0d:34:
         39:81:64:9c:1e:d0:89:dd:e2:93:7e:73:b9:68:85:4b:92:dc:
         59:85:1a:62:78:69:85:24:9e:ca:70:99:73:9d:d2:a2:23:8c:
         f5:43:78:c8:98:39:67:a6:13:5f:82:6b:da:85:fb:a9:23:c6:
         13:0d:7b:1f:8b:b2:e9:b5:90:24:9d:8c:2b:40:32:e2:ca:09:
         38:c3:94:b6:e0:67:0a:55:09:f4:d2:ab:ed:f8:44:9d:18:fd:
         c7:cb:cf:16:90:e4:14:58:76:78:0c:f7:57:60:7e:b2:f7:9a:
         bb:b0:29:5d:c3:eb:1c:c7:6f:47:eb:91:25:ab:f2:74:02:c2:
         d7:3f:d1:a9:ab:4b:50:52
-----BEGIN CERTIFICATE-----
MIIEzjCCAragAwIBAgIRAOf9uuWn/4ot9fAKBVYi2vMwDQYJKoZIhvcNAQELBQAw
ODEQMA4GA1UEAwwHUm9vdCBDQTEXMBUGA1UECgwORGV2ZWxvcG1lbnQgVk0xCzAJ
BgNVBAYTAk5MMB4XDTIwMDkwMTEwMTgxMloXDTIzMDkwMTEwMTgxMlowTTELMAkG
A1UEBhMCTkwxFzAVBgNVBAoMDkRldmVsb3BtZW50IFZNMSUwIwYDVQQDDBxkZW1v
LWdzc3Auc3RlcHVwLmV4YW1wbGUuY29tMIIBIjANBgkqhkiG9w0BAQEFAAOCAQ8A
MIIBCgKCAQEA4+eO7jzCVRpbmEavKY2AFuuFG4Ury0G7cbvfiq2pmo7NV7Bbw2Y8
57ueOH2MDtD9QdiGc+pN6fRxwaDavE12V1IcOOJ+WrWwKz9r2+1RcEHavUt2DZ0y
OhHyuluQJUvinOe02/3QkFyHHNKbar6/0nRllz9dGkEdGDm1Vtnzzw1O0Nwun1ta
hE4T26sSOSw9m6ZAJ+iRkWHTp7WUbrnY6Q3pyBFO84Fn6z+z//S2LkCAqxtPKLN1
LE3Tw4HwrH9DEU/dGaBLx4co8KcB5nH+nl/PWHzdoP/9s3rvmPVQ4Tsc6D0GFFsr
HhkLfNMH/VelzuiC39vuNFnhcedbIbIPswIDAQABo4G9MIG6MB0GA1UdDgQWBBTO
kYth6K+7d1Z8xR7YortPASYb2zBgBgNVHSMEWTBXgBRtwBZ+/uGH9DtPMFnCBb0r
67KTHKE8pDowODEQMA4GA1UEAwwHUm9vdCBDQTEXMBUGA1UECgwORGV2ZWxvcG1l
bnQgVk0xCzAJBgNVBAYTAk5MggEAMA8GA1UdEwEB/wQFMAMCAQAwDgYDVR0PAQH/
BAQDAgWgMBYGA1UdJQEB/wQMMAoGCCsGAQUFBwMBMA0GCSqGSIb3DQEBCwUAA4IC
AQCtlqv7iqPR6YvGXiRR3YtmFjy9O20hKlOoGTeWPH/7uyf9fMgFZDF7Q4jbFZPz
Zc8Ns9rBxcYbpv9JW6x0v4ogLJQQRcTQ89vejXfgAedeBGMs/KlNS4WGZ1icf/9r
9xXzinOuERVyEvu/Jhp88GTz0GGJYJAKxNK+ZslXviZKbliOYxo8OqnPZfAja3Ye
/f+Dow07uAysUBD5/DexVJvrqEkF5v7J/Nlkw2IRmRuK7icbfZnJ5pvcmi7Eytpr
ZWoHUYZsIOo6Z8DIVoZ5yEl/QG43SifnCfSB6FQgwefEYaqa1KFpD4KeAg1FRMXq
+PfeAppXkaGq0Jv7Y4//zPWwi+fyg3KmGHn37SSeetHQnP8XyqEl/s6zr24l4ctA
eGK/HT+fgqyCIQVXXZYlkQmqk66v093wUBHGYlX6uDh31ey/BeN2vTKbl2SB7TpG
8vl0IOGSGMcXfAxIYK/m1oknGrCC72/7d02+WEbNbh9S9CwamKEgi7ZPDTQ5gWSc
HtCJ3eKTfnO5aIVLktxZhRpieGmFJJ7KcJlzndKiI4z1Q3jImDlnphNfgmvahfup
I8YTDXsfi7LptZAknYwrQDLiygk4w5S24GcKVQn00qvt+ESdGP3Hy88WkOQUWHZ4
DPdXYH6y95q7sCldw+scx29H65Elq/J0AsLXP9Gpq0tQUg==
-----END CERTIFICATE-----
