Certificate:
    Data:
        Version: 3 (0x2)
        Serial Number:
            e7:fd:ba:e5:a7:ff:8a:2d:f5:f0:0a:05:56:22:da:ef
    Signature Algorithm: sha256WithRSAEncryption
        Issuer: CN=Root CA, O=Development VM, C=NL
        Validity
            Not Before: Sep  1 10:18:11 2020 GMT
            Not After : Sep  1 10:18:11 2023 GMT
        Subject: C=NL, O=Development VM, CN=tiqr.stepup.example.com
        Subject Public Key Info:
            Public Key Algorithm: rsaEncryption
                Public-Key: (2048 bit)
                Modulus:
                    00:c1:9f:fa:fd:2a:86:ac:c8:5b:71:7e:ea:a2:51:
                    c9:8d:1a:d2:28:8d:cd:37:10:40:9a:bb:37:a7:0c:
                    48:a9:84:eb:83:21:d7:93:c5:09:7d:97:ba:62:d9:
                    7a:f2:ea:7d:7d:55:05:cb:a3:6d:d9:b9:6c:5f:2a:
                    08:71:ab:6a:37:e0:04:1a:63:2d:59:00:76:bd:bd:
                    07:d3:14:70:8d:87:8d:bf:50:b6:cb:30:74:68:2d:
                    17:89:37:f8:c2:93:6d:3e:94:38:c1:cb:d7:ae:c8:
                    ff:8f:34:1e:7b:93:00:3f:7b:21:d7:7c:d7:e8:2e:
                    c6:66:ee:c7:99:b4:66:76:ab:f6:d9:97:00:c3:d7:
                    67:f5:02:c3:99:cc:4e:b7:df:61:76:7d:3c:24:f9:
                    e6:e8:cd:ee:6b:9f:d5:cd:9e:03:54:db:9d:1a:45:
                    4c:f8:c6:1f:ba:b7:af:91:78:3c:bc:50:bc:71:1d:
                    b8:89:a1:c5:30:74:ca:57:f0:11:79:35:4a:8c:08:
                    06:8b:c4:21:8c:18:de:9e:01:92:de:18:85:f6:14:
                    40:b7:12:f2:2b:d9:08:08:86:3b:37:a4:0f:10:a9:
                    0a:67:b3:0f:05:82:34:09:db:41:ab:bd:55:6e:74:
                    2d:0a:90:d5:3f:38:8c:f3:33:8c:dc:fd:f4:92:c7:
                    54:ad
                Exponent: 65537 (0x10001)
        X509v3 extensions:
            X509v3 Subject Key Identifier: 
                87:8E:FD:8A:A7:EA:01:2A:CC:33:A5:3D:B3:32:82:21:5B:61:A8:A7
            X509v3 Authority Key Identifier: 
                keyid:6D:C0:16:7E:FE:E1:87:F4:3B:4F:30:59:C2:05:BD:2B:EB:B2:93:1C
                DirName:/CN=Root CA/O=Development VM/C=NL
                serial:00

            X509v3 Basic Constraints: critical
                CA:FALSE, pathlen:0
            X509v3 Key Usage: critical
                Digital Signature, Key Encipherment
            X509v3 Extended Key Usage: critical
                TLS Web Server Authentication
    Signature Algorithm: sha256WithRSAEncryption
         6a:4f:4e:3f:a0:71:0d:4e:14:98:82:e4:d8:82:86:d5:20:55:
         22:a5:b5:cd:9c:d3:38:bd:52:92:35:41:87:2d:50:99:cc:9d:
         77:4a:90:49:b3:3f:f9:f2:f0:fb:e4:75:bb:63:90:93:10:c4:
         88:57:6c:58:47:c2:92:bf:94:cf:4f:2b:3a:da:3b:c9:ed:13:
         c4:7f:2b:12:21:4a:b8:82:d6:15:f5:f5:d5:47:57:dd:cf:ae:
         c5:40:43:bd:58:c5:af:1f:29:82:a4:f2:51:7d:7e:61:39:4d:
         e9:41:26:5c:1e:93:81:03:3d:89:c0:31:50:9b:09:44:7b:e7:
         1f:ff:47:81:07:74:d8:51:f7:51:5d:21:dc:d5:6b:09:bf:00:
         7b:53:40:34:9b:2f:4b:6e:85:8b:38:53:b6:db:61:13:45:b9:
         2b:62:2a:03:08:5b:49:3a:7d:84:c5:c0:47:10:45:8f:97:ca:
         e4:4f:e8:a2:e3:3d:a0:9e:4e:e9:83:84:bf:38:0c:30:c9:c8:
         6f:2e:0a:be:79:19:a3:1a:96:fc:a9:2c:b9:8d:d4:d3:c9:80:
         0a:49:33:4d:57:cb:86:4b:39:85:38:42:a2:16:e5:40:42:3d:
         2b:9e:bf:d9:9a:02:31:80:21:ff:30:99:a8:dd:4d:94:7a:15:
         e7:ae:54:19:e6:ba:7a:b6:10:7d:13:34:ff:10:da:9f:99:3e:
         80:f0:d5:4b:af:e4:ff:06:dd:c2:46:7d:81:4e:c1:b7:b3:e3:
         2a:58:27:4a:11:e2:31:46:fc:27:54:f7:3b:66:f3:ec:d2:8f:
         49:7f:e7:a0:49:f6:90:36:ec:91:f9:4f:39:2d:72:7a:93:67:
         e7:19:16:99:a7:20:77:59:a9:fa:f0:85:b7:6e:ca:56:88:3d:
         5f:b5:c2:a7:76:a3:0a:2a:70:0e:da:51:ca:15:2e:b3:9c:20:
         3a:cd:f7:fe:2f:85:77:40:32:ef:fd:8d:db:57:68:43:68:e4:
         98:ef:20:b6:c6:17:eb:95:66:00:44:e9:05:c2:c2:ec:dd:df:
         a0:20:e3:de:f2:da:6f:c3:d7:5a:ac:68:fb:16:44:22:5d:91:
         23:f9:e7:fb:42:0e:dc:8b:5d:08:43:a1:3b:ee:a8:18:56:fa:
         9e:34:57:c4:d0:0e:cd:91:77:4d:17:72:74:55:88:43:35:4a:
         16:1c:2c:b3:a0:7d:ad:ea:21:56:18:b4:60:14:cc:ac:5f:76:
         12:e9:d8:49:8d:3c:23:a2:8e:3a:36:60:4b:0b:64:65:e8:97:
         97:4e:6a:8d:a2:17:a7:ac:e6:54:3c:77:e2:45:c7:52:92:40:
         59:71:e0:b0:26:26:54:c5
-----BEGIN CERTIFICATE-----
MIIEyTCCArGgAwIBAgIRAOf9uuWn/4ot9fAKBVYi2u8wDQYJKoZIhvcNAQELBQAw
ODEQMA4GA1UEAwwHUm9vdCBDQTEXMBUGA1UECgwORGV2ZWxvcG1lbnQgVk0xCzAJ
BgNVBAYTAk5MMB4XDTIwMDkwMTEwMTgxMVoXDTIzMDkwMTEwMTgxMVowSDELMAkG
A1UEBhMCTkwxFzAVBgNVBAoMDkRldmVsb3BtZW50IFZNMSAwHgYDVQQDDBd0aXFy
LnN0ZXB1cC5leGFtcGxlLmNvbTCCASIwDQYJKoZIhvcNAQEBBQADggEPADCCAQoC
ggEBAMGf+v0qhqzIW3F+6qJRyY0a0iiNzTcQQJq7N6cMSKmE64Mh15PFCX2XumLZ
evLqfX1VBcujbdm5bF8qCHGrajfgBBpjLVkAdr29B9MUcI2Hjb9QtsswdGgtF4k3
+MKTbT6UOMHL167I/480HnuTAD97Idd81+guxmbux5m0Znar9tmXAMPXZ/UCw5nM
TrffYXZ9PCT55ujN7muf1c2eA1TbnRpFTPjGH7q3r5F4PLxQvHEduImhxTB0ylfw
EXk1SowIBovEIYwY3p4Bkt4YhfYUQLcS8ivZCAiGOzekDxCpCmezDwWCNAnbQau9
VW50LQqQ1T84jPMzjNz99JLHVK0CAwEAAaOBvTCBujAdBgNVHQ4EFgQUh479iqfq
ASrMM6U9szKCIVthqKcwYAYDVR0jBFkwV4AUbcAWfv7hh/Q7TzBZwgW9K+uykxyh
PKQ6MDgxEDAOBgNVBAMMB1Jvb3QgQ0ExFzAVBgNVBAoMDkRldmVsb3BtZW50IFZN
MQswCQYDVQQGEwJOTIIBADAPBgNVHRMBAf8EBTADAgEAMA4GA1UdDwEB/wQEAwIF
oDAWBgNVHSUBAf8EDDAKBggrBgEFBQcDATANBgkqhkiG9w0BAQsFAAOCAgEAak9O
P6BxDU4UmILk2IKG1SBVIqW1zZzTOL1SkjVBhy1Qmcydd0qQSbM/+fLw++R1u2OQ
kxDEiFdsWEfCkr+Uz08rOto7ye0TxH8rEiFKuILWFfX11UdX3c+uxUBDvVjFrx8p
gqTyUX1+YTlN6UEmXB6TgQM9icAxUJsJRHvnH/9HgQd02FH3UV0h3NVrCb8Ae1NA
NJsvS26FizhTttthE0W5K2IqAwhbSTp9hMXARxBFj5fK5E/oouM9oJ5O6YOEvzgM
MMnIby4KvnkZoxqW/KksuY3U08mACkkzTVfLhks5hThCohblQEI9K56/2ZoCMYAh
/zCZqN1NlHoV565UGea6erYQfRM0/xDan5k+gPDVS6/k/wbdwkZ9gU7Bt7PjKlgn
ShHiMUb8J1T3O2bz7NKPSX/noEn2kDbskflPOS1yepNn5xkWmacgd1mp+vCFt27K
Vog9X7XCp3ajCipwDtpRyhUus5wgOs33/i+Fd0Ay7/2N21doQ2jkmO8gtsYX65Vm
AETpBcLC7N3foCDj3vLab8PXWqxo+xZEIl2RI/nn+0IO3ItdCEOhO+6oGFb6njRX
xNAOzZF3TRdydFWIQzVKFhwss6B9reohVhi0YBTMrF92EunYSY08I6KOOjZgSwtk
ZeiXl05qjaIXp6zmVDx34kXHUpJAWXHgsCYmVMU=
-----END CERTIFICATE-----
