Certificate:
    Data:
        Version: 3 (0x2)
        Serial Number:
            e7:fd:ba:e5:a7:ff:8a:2d:f5:f0:0a:05:56:22:da:ee
    Signature Algorithm: sha256WithRSAEncryption
        Issuer: CN=Root CA, O=Development VM, C=NL
        Validity
            Not Before: Sep  1 10:18:11 2020 GMT
            Not After : Sep  1 10:18:11 2023 GMT
        Subject: C=NL, O=Development VM, CN=middleware.stepup.example.com
        Subject Public Key Info:
            Public Key Algorithm: rsaEncryption
                Public-Key: (2048 bit)
                Modulus:
                    00:99:2a:b6:7e:d2:61:24:fa:7d:1c:08:70:7b:03:
                    ae:2d:77:b4:78:75:4f:9f:37:61:2d:c8:8f:62:72:
                    84:06:57:23:ff:69:5e:64:e0:e8:1f:52:a4:2d:10:
                    f2:a6:b7:b3:81:71:16:78:79:b0:92:66:4f:07:ae:
                    56:b4:e5:e7:c3:b6:d2:7f:22:9b:29:14:22:d4:dd:
                    e3:2f:87:aa:df:73:3e:5b:e2:c5:b3:07:2f:54:f6:
                    2c:f7:13:fd:56:5f:62:e3:84:90:de:82:fa:39:b6:
                    c6:74:42:ae:20:4c:96:80:77:df:9b:8e:e6:20:ab:
                    92:b4:58:fe:a0:71:f9:c9:0f:51:8f:a4:8e:3c:de:
                    e4:fa:92:b4:12:aa:1f:84:38:61:ee:74:cb:52:3b:
                    19:8b:de:25:a2:69:2b:a2:27:cb:33:ca:f9:65:27:
                    b2:45:64:62:a8:eb:dd:ac:ae:96:76:3c:73:88:67:
                    ba:93:08:56:29:78:eb:52:97:af:ba:8a:8d:03:40:
                    07:5e:60:f2:08:b5:48:93:24:31:12:c2:c2:d3:e3:
                    33:f5:27:66:8e:8b:af:11:12:24:a8:43:1e:06:d3:
                    64:ec:4e:0a:96:12:ef:96:fa:59:eb:a8:e5:4f:cb:
                    9d:61:cc:b6:74:b3:d3:db:77:55:4d:dc:ea:73:ea:
                    6d:29
                Exponent: 65537 (0x10001)
        X509v3 extensions:
            X509v3 Subject Key Identifier: 
                14:4B:4A:A8:3C:E4:55:8F:D5:BF:6C:B8:D0:E8:B3:CA:D0:87:FF:E5
            X509v3 Authority Key Identifier: 
                keyid:6D:C0:16:7E:FE:E1:87:F4:3B:4F:30:59:C2:05:BD:2B:EB:B2:93:1C
                DirName:/CN=Root CA/O=Development VM/C=NL
                serial:00

            X509v3 Basic Constraints: critical
                CA:FALSE, pathlen:0
            X509v3 Key Usage: critical
                Digital Signature, Key Encipherment
            X509v3 Extended Key Usage: critical
                TLS Web Server Authentication
    Signature Algorithm: sha256WithRSAEncryption
         ce:82:84:e1:b4:aa:48:13:9e:e3:ba:29:8f:fa:09:0a:48:7d:
         a3:56:52:69:5f:e1:d9:49:70:3e:cb:d7:7e:cc:d6:ad:1f:25:
         ca:6a:86:b0:25:33:d6:91:54:74:bd:7e:c4:71:e0:ec:45:bc:
         10:90:95:84:6a:5c:86:56:97:b6:14:64:48:27:27:0e:41:bb:
         be:ba:f5:93:24:03:ce:a7:ae:8e:2c:8e:8f:4c:d1:e0:b2:da:
         b0:3a:00:e5:a0:f1:24:72:51:c4:04:d2:07:ae:04:74:7b:e4:
         93:4e:61:39:bc:0b:03:3f:18:00:ca:33:61:60:b1:56:9a:97:
         2a:b5:e0:43:75:8a:01:42:46:93:f4:e4:6c:05:0c:41:4a:d4:
         04:28:af:e6:b3:c4:f3:32:eb:9a:17:59:ee:da:be:32:d6:6a:
         db:cb:2f:b6:d3:39:23:2b:64:dc:f0:26:12:4e:b8:e9:ac:ca:
         59:ff:69:70:ba:fb:6d:28:1e:92:a7:6d:0e:cb:f7:fb:71:9b:
         d7:03:49:c5:3a:d4:f2:3a:80:eb:43:ac:1a:98:99:53:56:9a:
         b6:88:82:9e:0c:d5:54:c4:5d:70:60:70:ac:6f:ef:84:d2:09:
         05:ff:9c:c1:72:c8:3f:59:1e:77:bf:7f:e2:54:27:ec:0d:ee:
         ef:37:c8:29:dd:a6:6e:61:f5:b2:fd:d0:f4:2a:0c:8b:1a:b0:
         f6:aa:df:14:4f:56:46:14:05:03:99:b7:59:40:3d:ca:df:66:
         07:56:e2:ef:b0:75:f5:de:cb:70:d3:fe:85:fb:22:93:08:6d:
         e3:4c:30:a9:fd:ab:a5:15:7b:67:26:5f:43:53:cf:20:e6:9a:
         99:9e:fb:8d:9b:56:a8:e7:1a:c0:38:82:d9:a2:f0:a7:a9:0c:
         e6:7f:35:54:54:4a:e9:97:1b:17:19:5b:b5:c0:26:c6:55:6f:
         13:8d:2a:06:9e:08:35:af:8a:34:8c:14:1b:01:71:d5:b5:34:
         86:f9:98:22:65:e2:df:44:ae:c4:c2:d0:8f:71:fd:05:50:79:
         a7:02:12:a6:a5:d9:f3:8b:29:50:ee:1c:b3:5c:ca:24:28:f9:
         62:9a:28:a9:bc:bf:6d:f0:3a:6d:99:d6:13:10:7c:29:91:39:
         ef:31:35:0a:75:38:31:30:24:9e:d0:2b:b1:c3:63:18:64:39:
         20:d6:db:44:51:a1:49:e5:90:e0:65:be:62:fe:27:7e:fd:ed:
         d0:99:86:e9:8d:b7:6b:83:76:08:5e:72:bb:81:57:66:33:e8:
         a9:9c:99:2f:32:a8:39:24:4a:ab:ab:0d:bf:fb:51:1c:da:90:
         1a:9f:c7:7b:4e:f9:c8:58
-----BEGIN CERTIFICATE-----
MIIEzzCCAregAwIBAgIRAOf9uuWn/4ot9fAKBVYi2u4wDQYJKoZIhvcNAQELBQAw
ODEQMA4GA1UEAwwHUm9vdCBDQTEXMBUGA1UECgwORGV2ZWxvcG1lbnQgVk0xCzAJ
BgNVBAYTAk5MMB4XDTIwMDkwMTEwMTgxMVoXDTIzMDkwMTEwMTgxMVowTjELMAkG
A1UEBhMCTkwxFzAVBgNVBAoMDkRldmVsb3BtZW50IFZNMSYwJAYDVQQDDB1taWRk
bGV3YXJlLnN0ZXB1cC5leGFtcGxlLmNvbTCCASIwDQYJKoZIhvcNAQEBBQADggEP
ADCCAQoCggEBAJkqtn7SYST6fRwIcHsDri13tHh1T583YS3Ij2JyhAZXI/9pXmTg
6B9SpC0Q8qa3s4FxFnh5sJJmTweuVrTl58O20n8imykUItTd4y+Hqt9zPlvixbMH
L1T2LPcT/VZfYuOEkN6C+jm2xnRCriBMloB335uO5iCrkrRY/qBx+ckPUY+kjjze
5PqStBKqH4Q4Ye50y1I7GYveJaJpK6InyzPK+WUnskVkYqjr3ayulnY8c4hnupMI
Vil461KXr7qKjQNAB15g8gi1SJMkMRLCwtPjM/UnZo6LrxESJKhDHgbTZOxOCpYS
75b6Weuo5U/LnWHMtnSz09t3VU3c6nPqbSkCAwEAAaOBvTCBujAdBgNVHQ4EFgQU
FEtKqDzkVY/Vv2y40OizytCH/+UwYAYDVR0jBFkwV4AUbcAWfv7hh/Q7TzBZwgW9
K+uykxyhPKQ6MDgxEDAOBgNVBAMMB1Jvb3QgQ0ExFzAVBgNVBAoMDkRldmVsb3Bt
ZW50IFZNMQswCQYDVQQGEwJOTIIBADAPBgNVHRMBAf8EBTADAgEAMA4GA1UdDwEB
/wQEAwIFoDAWBgNVHSUBAf8EDDAKBggrBgEFBQcDATANBgkqhkiG9w0BAQsFAAOC
AgEAzoKE4bSqSBOe47opj/oJCkh9o1ZSaV/h2UlwPsvXfszWrR8lymqGsCUz1pFU
dL1+xHHg7EW8EJCVhGpchlaXthRkSCcnDkG7vrr1kyQDzqeujiyOj0zR4LLasDoA
5aDxJHJRxATSB64EdHvkk05hObwLAz8YAMozYWCxVpqXKrXgQ3WKAUJGk/TkbAUM
QUrUBCiv5rPE8zLrmhdZ7tq+MtZq28svttM5Iytk3PAmEk646azKWf9pcLr7bSge
kqdtDsv3+3Gb1wNJxTrU8jqA60OsGpiZU1aatoiCngzVVMRdcGBwrG/vhNIJBf+c
wXLIP1ked79/4lQn7A3u7zfIKd2mbmH1sv3Q9CoMixqw9qrfFE9WRhQFA5m3WUA9
yt9mB1bi77B19d7LcNP+hfsikwht40wwqf2rpRV7ZyZfQ1PPIOaamZ77jZtWqOca
wDiC2aLwp6kM5n81VFRK6ZcbFxlbtcAmxlVvE40qBp4INa+KNIwUGwFx1bU0hvmY
ImXi30SuxMLQj3H9BVB5pwISpqXZ84spUO4cs1zKJCj5Ypooqby/bfA6bZnWExB8
KZE57zE1CnU4MTAkntArscNjGGQ5INbbRFGhSeWQ4GW+Yv4nfv3t0JmG6Y23a4N2
CF5yu4FXZjPoqZyZLzKoOSRKq6sNv/tRHNqQGp/He075yFg=
-----END CERTIFICATE-----
