Certificate:
    Data:
        Version: 3 (0x2)
        Serial Number:
            e7:fd:ba:e5:a7:ff:8a:2d:f5:f0:0a:05:56:22:da:f4
    Signature Algorithm: sha256WithRSAEncryption
        Issuer: CN=Root CA, O=Development VM, C=NL
        Validity
            Not Before: Sep  1 10:18:12 2020 GMT
            Not After : Sep  1 10:18:12 2023 GMT
        Subject: C=NL, O=Development VM, CN=demo-gssp-2.stepup.example.com
        Subject Public Key Info:
            Public Key Algorithm: rsaEncryption
                Public-Key: (2048 bit)
                Modulus:
                    00:ab:78:dc:96:70:68:89:f6:68:75:29:92:d8:0a:
                    60:7c:73:6c:f7:61:ff:3c:79:a3:b7:59:35:24:39:
                    88:ad:eb:cb:66:2b:05:d5:2f:9e:92:59:d8:59:b7:
                    9f:47:b9:f5:88:a3:09:1e:e1:e7:a9:6e:0c:57:4d:
                    e5:02:ff:a4:27:99:e4:03:4d:27:28:59:12:7f:82:
                    73:ff:5f:f6:1b:c0:8a:d3:6a:96:a0:cf:13:11:06:
                    4d:c9:e2:8c:cf:09:d7:43:f1:de:e7:c2:2d:9f:6c:
                    e6:fc:1b:2d:81:0f:10:31:b9:0d:be:4c:0b:d3:cc:
                    1b:09:b6:8b:51:3f:cc:06:0c:3d:9f:51:07:93:d1:
                    06:7c:c4:a2:64:37:fc:96:4b:aa:2a:1e:fa:33:4e:
                    e6:1a:99:6e:67:13:ed:10:34:75:08:6d:8f:59:1c:
                    33:5d:d4:7f:0c:c6:5d:1a:9e:53:70:6c:c4:8e:d8:
                    fd:2a:73:98:e2:5d:dd:12:53:74:6a:e6:03:9c:76:
                    f7:88:83:6e:8e:ad:e9:0e:59:14:e6:61:c2:71:29:
                    c4:41:2d:f0:a2:89:02:90:6d:52:a0:ce:07:3e:0e:
                    c6:bd:1a:79:32:82:61:d2:44:ca:0d:c6:f5:7b:33:
                    a0:75:4a:e4:13:36:52:5f:2f:d7:97:54:c4:94:44:
                    61:d3
                Exponent: 65537 (0x10001)
        X509v3 extensions:
            X509v3 Subject Key Identifier: 
                32:49:C3:55:A0:BA:9A:A5:03:FA:8D:D9:AD:5E:11:57:33:7E:63:56
            X509v3 Authority Key Identifier: 
                keyid:6D:C0:16:7E:FE:E1:87:F4:3B:4F:30:59:C2:05:BD:2B:EB:B2:93:1C
                DirName:/CN=Root CA/O=Development VM/C=NL
                serial:00

            X509v3 Basic Constraints: critical
                CA:FALSE, pathlen:0
            X509v3 Key Usage: critical
                Digital Signature, Key Encipherment
            X509v3 Extended Key Usage: critical
                TLS Web Server Authentication
    Signature Algorithm: sha256WithRSAEncryption
         a9:87:d1:41:1a:e8:fb:b5:35:6b:29:b8:55:72:36:c0:ab:eb:
         de:c1:e4:b1:5b:e6:80:be:a2:50:3d:8c:ca:6e:48:b9:94:3a:
         37:f6:95:8a:47:ac:a9:0e:b6:a0:0b:a8:4c:9f:d0:ab:35:39:
         1a:87:2e:a7:93:a1:99:9e:c1:50:8e:17:9f:52:f6:e5:84:27:
         ff:8d:c2:4a:f2:40:b9:fc:6d:b7:8e:1f:96:96:c6:fe:b0:28:
         40:71:f3:9d:8b:62:92:22:0d:f3:7b:d6:d4:de:f8:08:56:c3:
         75:c1:90:c9:8f:f6:db:1b:d8:87:04:4a:2d:ba:b4:63:5e:c7:
         5e:1b:ae:1e:ef:1c:b1:52:76:7d:77:ec:c0:b2:e1:41:4b:70:
         9b:43:3e:3a:57:6c:fb:74:61:fe:e0:8a:f9:8f:f4:93:e0:4f:
         c1:40:fc:7a:cf:db:30:37:52:52:89:81:dc:69:02:dc:23:63:
         89:69:3a:59:98:54:7f:3e:07:2c:5b:18:b7:94:42:1d:67:6f:
         fd:a0:fb:1f:69:27:cd:92:7c:16:4e:4d:38:03:c1:ba:3c:db:
         e7:99:02:5c:45:d4:db:4a:27:0e:70:1e:16:3a:97:eb:25:a2:
         4c:8c:b6:2e:94:8b:bb:b5:7d:c4:6a:fd:44:14:e1:92:cb:a1:
         35:d7:74:9b:2b:e0:56:ec:42:ee:7f:41:e9:e1:29:3f:36:e1:
         b9:c6:39:29:98:84:57:09:05:0c:86:6e:0f:b5:7e:5c:7d:fb:
         15:16:d0:0d:20:f2:33:9e:ef:a0:39:1b:c7:28:cf:ed:1e:4a:
         9a:48:8b:20:4e:6c:8c:fb:c2:d3:a0:39:23:18:20:bd:f7:b6:
         60:27:18:4e:16:ad:96:5a:98:55:d2:84:e3:4e:6c:84:16:4e:
         eb:07:7d:7c:0f:c6:ef:c7:96:ec:ed:3e:e1:ac:83:34:82:06:
         bf:b8:e5:02:df:fb:bb:ee:fe:a2:98:51:f1:6d:aa:1b:dd:25:
         a2:c5:3f:97:fb:8c:59:74:81:ad:92:4c:8d:17:39:b4:68:b9:
         d4:c5:1f:1e:b4:5b:65:4e:5b:e9:c8:44:fe:56:de:db:72:03:
         8f:89:35:c2:cd:5a:aa:84:c9:bd:98:50:19:52:7c:0a:ad:2b:
         7f:f7:d6:9c:49:3a:0b:8d:c7:dc:b6:60:62:68:33:5a:f6:27:
         aa:c1:db:7c:c3:37:4a:00:3f:df:b0:04:54:b9:62:fe:c5:67:
         5c:dd:66:2d:9c:a4:cb:ea:11:21:b3:28:8c:18:26:91:49:c0:
         f4:66:d4:65:7b:4a:77:32:8c:01:f8:0e:2e:73:8a:41:a4:c0:
         a3:ef:83:f5:4e:db:88:64
-----BEGIN CERTIFICATE-----
MIIE0DCCArigAwIBAgIRAOf9uuWn/4ot9fAKBVYi2vQwDQYJKoZIhvcNAQELBQAw
ODEQMA4GA1UEAwwHUm9vdCBDQTEXMBUGA1UECgwORGV2ZWxvcG1lbnQgVk0xCzAJ
BgNVBAYTAk5MMB4XDTIwMDkwMTEwMTgxMloXDTIzMDkwMTEwMTgxMlowTzELMAkG
A1UEBhMCTkwxFzAVBgNVBAoMDkRldmVsb3BtZW50IFZNMScwJQYDVQQDDB5kZW1v
LWdzc3AtMi5zdGVwdXAuZXhhbXBsZS5jb20wggEiMA0GCSqGSIb3DQEBAQUAA4IB
DwAwggEKAoIBAQCreNyWcGiJ9mh1KZLYCmB8c2z3Yf88eaO3WTUkOYit68tmKwXV
L56SWdhZt59HufWIowke4eepbgxXTeUC/6QnmeQDTScoWRJ/gnP/X/YbwIrTapag
zxMRBk3J4ozPCddD8d7nwi2fbOb8Gy2BDxAxuQ2+TAvTzBsJtotRP8wGDD2fUQeT
0QZ8xKJkN/yWS6oqHvozTuYamW5nE+0QNHUIbY9ZHDNd1H8Mxl0anlNwbMSO2P0q
c5jiXd0SU3Rq5gOcdveIg26OrekOWRTmYcJxKcRBLfCiiQKQbVKgzgc+Dsa9Gnky
gmHSRMoNxvV7M6B1SuQTNlJfL9eXVMSURGHTAgMBAAGjgb0wgbowHQYDVR0OBBYE
FDJJw1WgupqlA/qN2a1eEVczfmNWMGAGA1UdIwRZMFeAFG3AFn7+4Yf0O08wWcIF
vSvrspMcoTykOjA4MRAwDgYDVQQDDAdSb290IENBMRcwFQYDVQQKDA5EZXZlbG9w
bWVudCBWTTELMAkGA1UEBhMCTkyCAQAwDwYDVR0TAQH/BAUwAwIBADAOBgNVHQ8B
Af8EBAMCBaAwFgYDVR0lAQH/BAwwCgYIKwYBBQUHAwEwDQYJKoZIhvcNAQELBQAD
ggIBAKmH0UEa6Pu1NWspuFVyNsCr697B5LFb5oC+olA9jMpuSLmUOjf2lYpHrKkO
tqALqEyf0Ks1ORqHLqeToZmewVCOF59S9uWEJ/+NwkryQLn8bbeOH5aWxv6wKEBx
852LYpIiDfN71tTe+AhWw3XBkMmP9tsb2IcESi26tGNex14brh7vHLFSdn137MCy
4UFLcJtDPjpXbPt0Yf7givmP9JPgT8FA/HrP2zA3UlKJgdxpAtwjY4lpOlmYVH8+
ByxbGLeUQh1nb/2g+x9pJ82SfBZOTTgDwbo82+eZAlxF1NtKJw5wHhY6l+slokyM
ti6Ui7u1fcRq/UQU4ZLLoTXXdJsr4FbsQu5/QenhKT824bnGOSmYhFcJBQyGbg+1
flx9+xUW0A0g8jOe76A5G8coz+0eSppIiyBObIz7wtOgOSMYIL33tmAnGE4WrZZa
mFXShONObIQWTusHfXwPxu/HluztPuGsgzSCBr+45QLf+7vu/qKYUfFtqhvdJaLF
P5f7jFl0ga2STI0XObRoudTFHx60W2VOW+nIRP5W3ttyA4+JNcLNWqqEyb2YUBlS
fAqtK3/31pxJOguNx9y2YGJoM1r2J6rB23zDN0oAP9+wBFS5Yv7FZ1zdZi2cpMvq
ESGzKIwYJpFJwPRm1GV7SncyjAH4Di5zikGkwKPvg/VO24hk
-----END CERTIFICATE-----
