Certificate:
    Data:
        Version: 3 (0x2)
        Serial Number:
            e7:fd:ba:e5:a7:ff:8a:2d:f5:f0:0a:05:56:22:da:f2
    Signature Algorithm: sha256WithRSAEncryption
        Issuer: CN=Root CA, O=Development VM, C=NL
        Validity
            Not Before: Sep  1 10:18:12 2020 GMT
            Not After : Sep  1 10:18:12 2023 GMT
        Subject: C=NL, O=Development VM, CN=simplesaml.stepup.example.com
        Subject Public Key Info:
            Public Key Algorithm: rsaEncryption
                Public-Key: (2048 bit)
                Modulus:
                    00:c2:a9:d5:04:1b:ec:2f:ca:2f:0f:3c:28:3b:13:
                    56:e3:5e:d8:c5:0c:8a:02:ac:47:09:5d:51:c0:9c:
                    6f:c5:15:e9:92:e4:f8:ec:57:00:ca:b9:48:ed:f1:
                    ed:a8:43:49:22:08:ec:16:8a:da:74:89:95:55:cc:
                    de:00:6e:18:c6:78:88:c8:9f:2e:9d:62:fe:69:86:
                    db:17:ed:cf:c1:c5:af:31:46:bb:04:17:7f:4b:24:
                    b3:26:fb:41:ce:1c:f9:fa:8b:7f:77:59:b0:34:b7:
                    6b:81:6d:76:e7:dc:4f:bd:06:4f:eb:0b:c3:01:f3:
                    1f:0d:ed:dc:e2:16:17:1a:87:e5:f4:c1:ba:49:ce:
                    35:bb:09:37:68:f8:8e:d0:27:bb:fc:45:bf:24:c3:
                    67:f1:bf:83:51:13:69:84:00:aa:22:4b:6f:e3:e1:
                    ac:56:78:2b:e4:06:78:04:66:87:a0:b2:e7:44:65:
                    bd:42:b2:64:88:98:a9:71:36:57:c4:53:5f:ae:95:
                    e3:b3:5e:31:24:da:43:7f:e0:ac:3d:ce:0c:63:5a:
                    e6:00:2b:2c:d3:d7:42:62:f7:a2:d5:17:78:86:cd:
                    00:d5:96:2e:8d:c2:ed:fd:b1:11:7d:96:8f:f2:55:
                    be:ff:64:f5:33:28:a9:06:8c:c2:b4:40:76:50:27:
                    be:6b
                Exponent: 65537 (0x10001)
        X509v3 extensions:
            X509v3 Subject Key Identifier: 
                E7:69:91:03:35:CB:3D:65:8E:BE:74:74:F6:59:03:B4:A2:E2:75:4E
            X509v3 Authority Key Identifier: 
                keyid:6D:C0:16:7E:FE:E1:87:F4:3B:4F:30:59:C2:05:BD:2B:EB:B2:93:1C
                DirName:/CN=Root CA/O=Development VM/C=NL
                serial:00

            X509v3 Basic Constraints: critical
                CA:FALSE, pathlen:0
            X509v3 Key Usage: critical
                Digital Signature, Key Encipherment
            X509v3 Extended Key Usage: critical
                TLS Web Server Authentication
    Signature Algorithm: sha256WithRSAEncryption
         2c:b6:9a:1b:ad:c9:21:d6:6a:72:a4:38:5b:4e:f0:1b:92:b4:
         8d:d6:df:cb:2c:66:5c:15:2e:b4:c2:7c:7f:95:94:77:cb:93:
         91:34:86:60:b2:94:70:f9:33:d0:48:2a:f6:ed:03:7e:73:43:
         b8:27:2f:77:bb:f5:1c:36:b9:e6:e0:1c:41:89:7e:e1:f7:a3:
         dc:67:01:b0:e5:51:56:1f:81:24:35:35:08:39:04:8e:19:11:
         35:65:60:f2:8b:a7:ba:73:52:3b:b8:ab:f7:40:fd:12:d0:98:
         f2:6c:0c:fb:8d:d3:a2:8e:67:bc:ae:c1:50:ce:a6:7a:8f:48:
         59:e5:77:f5:d8:c4:f1:32:f8:48:aa:5a:c0:5a:4a:9f:e9:51:
         39:e4:5d:54:0a:fe:4f:16:40:e9:09:7b:b0:79:ed:cc:a3:ea:
         d6:f2:04:3b:a8:08:b7:e1:4d:15:ae:e1:79:a2:cd:f5:4d:ed:
         df:74:5e:99:16:2b:7b:d4:d6:6a:33:55:aa:f6:8a:48:55:2f:
         db:fe:b3:38:d3:81:1f:f8:19:13:b1:d2:98:ad:52:64:a4:cb:
         a9:02:a5:81:b3:1b:bb:ed:10:45:00:3d:2a:b9:04:c3:55:b9:
         f8:3a:c3:ad:de:3f:96:e9:47:f5:d5:14:cb:81:4d:7b:d1:c2:
         be:42:35:72:55:40:a2:e4:ef:8d:10:04:45:c4:f3:4d:b0:1e:
         17:32:a3:5d:9c:57:ab:be:04:21:7e:2c:e3:12:2b:f6:c2:e4:
         ba:3e:38:80:83:43:af:5f:d9:37:67:1e:12:54:0e:45:92:d7:
         e1:36:e2:b6:f5:48:04:2c:84:cc:86:d4:ea:7d:33:d3:b9:b7:
         87:a7:e1:d5:f5:52:d8:fc:47:fa:cd:70:a6:0f:76:9d:a2:17:
         42:31:5d:8f:a6:5d:19:82:d4:98:5c:3c:3d:eb:5a:6f:b3:e3:
         a0:09:df:92:49:05:f0:bf:38:ad:33:18:5c:0e:b6:75:f2:50:
         4f:95:52:5d:a0:80:eb:bc:be:0a:6b:9f:d9:b9:61:be:14:27:
         9b:7b:2c:a2:c7:20:18:d8:4e:10:ae:5f:40:d6:9b:a8:67:ac:
         02:56:f9:ac:dd:9e:4a:52:c4:65:67:03:20:94:eb:88:a3:d4:
         3c:b3:af:7f:6d:42:ba:25:8e:c7:7d:d8:f1:94:58:dc:54:a5:
         eb:83:0b:ac:d4:92:07:18:a2:ca:f0:a2:c7:bb:97:05:5f:c5:
         54:3e:ea:53:fa:c1:b1:a5:1a:3a:cc:ca:a0:39:04:32:45:1b:
         46:13:00:62:d7:d9:a1:53:4b:49:db:ee:9b:68:a5:fd:c3:16:
         18:7c:cd:06:a8:2f:5f:e8
-----BEGIN CERTIFICATE-----
MIIEzzCCAregAwIBAgIRAOf9uuWn/4ot9fAKBVYi2vIwDQYJKoZIhvcNAQELBQAw
ODEQMA4GA1UEAwwHUm9vdCBDQTEXMBUGA1UECgwORGV2ZWxvcG1lbnQgVk0xCzAJ
BgNVBAYTAk5MMB4XDTIwMDkwMTEwMTgxMloXDTIzMDkwMTEwMTgxMlowTjELMAkG
A1UEBhMCTkwxFzAVBgNVBAoMDkRldmVsb3BtZW50IFZNMSYwJAYDVQQDDB1zaW1w
bGVzYW1sLnN0ZXB1cC5leGFtcGxlLmNvbTCCASIwDQYJKoZIhvcNAQEBBQADggEP
ADCCAQoCggEBAMKp1QQb7C/KLw88KDsTVuNe2MUMigKsRwldUcCcb8UV6ZLk+OxX
AMq5SO3x7ahDSSII7BaK2nSJlVXM3gBuGMZ4iMifLp1i/mmG2xftz8HFrzFGuwQX
f0sksyb7Qc4c+fqLf3dZsDS3a4FtdufcT70GT+sLwwHzHw3t3OIWFxqH5fTBuknO
NbsJN2j4jtAnu/xFvyTDZ/G/g1ETaYQAqiJLb+PhrFZ4K+QGeARmh6Cy50RlvUKy
ZIiYqXE2V8RTX66V47NeMSTaQ3/grD3ODGNa5gArLNPXQmL3otUXeIbNANWWLo3C
7f2xEX2Wj/JVvv9k9TMoqQaMwrRAdlAnvmsCAwEAAaOBvTCBujAdBgNVHQ4EFgQU
52mRAzXLPWWOvnR09lkDtKLidU4wYAYDVR0jBFkwV4AUbcAWfv7hh/Q7TzBZwgW9
K+uykxyhPKQ6MDgxEDAOBgNVBAMMB1Jvb3QgQ0ExFzAVBgNVBAoMDkRldmVsb3Bt
ZW50IFZNMQswCQYDVQQGEwJOTIIBADAPBgNVHRMBAf8EBTADAgEAMA4GA1UdDwEB
/wQEAwIFoDAWBgNVHSUBAf8EDDAKBggrBgEFBQcDATANBgkqhkiG9w0BAQsFAAOC
AgEALLaaG63JIdZqcqQ4W07wG5K0jdbfyyxmXBUutMJ8f5WUd8uTkTSGYLKUcPkz
0Egq9u0DfnNDuCcvd7v1HDa55uAcQYl+4fej3GcBsOVRVh+BJDU1CDkEjhkRNWVg
8oununNSO7ir90D9EtCY8mwM+43Too5nvK7BUM6meo9IWeV39djE8TL4SKpawFpK
n+lROeRdVAr+TxZA6Ql7sHntzKPq1vIEO6gIt+FNFa7heaLN9U3t33RemRYre9TW
ajNVqvaKSFUv2/6zONOBH/gZE7HSmK1SZKTLqQKlgbMbu+0QRQA9KrkEw1W5+DrD
rd4/lulH9dUUy4FNe9HCvkI1clVAouTvjRAERcTzTbAeFzKjXZxXq74EIX4s4xIr
9sLkuj44gINDr1/ZN2ceElQORZLX4TbitvVIBCyEzIbU6n0z07m3h6fh1fVS2PxH
+s1wpg92naIXQjFdj6ZdGYLUmFw8Petab7PjoAnfkkkF8L84rTMYXA62dfJQT5VS
XaCA67y+Cmuf2blhvhQnm3ssoscgGNhOEK5fQNabqGesAlb5rN2eSlLEZWcDIJTr
iKPUPLOvf21CuiWOx33Y8ZRY3FSl64MLrNSSBxiiyvCix7uXBV/FVD7qU/rBsaUa
OszKoDkEMkUbRhMAYtfZoVNLSdvum2il/cMWGHzNBqgvX+g=
-----END CERTIFICATE-----
